Archive member included to satisfy reference by file (symbol)

G:/devkitPro/devkitARM/bin/../lib/gcc/arm-none-eabi/14.1.0/thumb\libgcc.a(_call_via_rX.o)
                              mm_main_gba.o (_call_via_r1)
G:/devkitPro/devkitARM/bin/../lib/gcc/arm-none-eabi/14.1.0/thumb\libgcc.a(_aeabi_ldivmod.o)
                              bn_hw_text.o (__aeabi_ldivmod)
G:/devkitPro/devkitARM/bin/../lib/gcc/arm-none-eabi/14.1.0/thumb\libgcc.a(_aeabi_uldivmod.o)
                              bn_hw_text.o (__aeabi_uldivmod)
G:/devkitPro/devkitARM/bin/../lib/gcc/arm-none-eabi/14.1.0/thumb\libgcc.a(_sync_none.o)
                              (__sync_synchronize_none)
G:/devkitPro/devkitARM/bin/../lib/gcc/arm-none-eabi/14.1.0/thumb\libgcc.a(_udivmoddi4.o)
                              G:/devkitPro/devkitARM/bin/../lib/gcc/arm-none-eabi/14.1.0/thumb\libgcc.a(_aeabi_ldivmod.o) (__udivmoddi4)

Discarded input sections

 .text          0x00000000        0x0 G:/devkitPro/devkitARM/bin/../lib/gcc/arm-none-eabi/14.1.0/../../../../arm-none-eabi/lib/thumb/gba_crt0.o
 .data          0x00000000        0x0 G:/devkitPro/devkitARM/bin/../lib/gcc/arm-none-eabi/14.1.0/../../../../arm-none-eabi/lib/thumb/gba_crt0.o
 .bss           0x00000000        0x0 G:/devkitPro/devkitARM/bin/../lib/gcc/arm-none-eabi/14.1.0/../../../../arm-none-eabi/lib/thumb/gba_crt0.o
 .text          0x00000000        0x0 G:/devkitPro/devkitARM/bin/../lib/gcc/arm-none-eabi/14.1.0/thumb/crti.o
 .data          0x00000000        0x0 G:/devkitPro/devkitARM/bin/../lib/gcc/arm-none-eabi/14.1.0/thumb/crti.o
 .bss           0x00000000        0x0 G:/devkitPro/devkitARM/bin/../lib/gcc/arm-none-eabi/14.1.0/thumb/crti.o
 .text          0x00000000        0x0 G:/devkitPro/devkitARM/bin/../lib/gcc/arm-none-eabi/14.1.0/thumb/crtbegin.o
 .data          0x00000000        0x0 G:/devkitPro/devkitARM/bin/../lib/gcc/arm-none-eabi/14.1.0/thumb/crtbegin.o
 .bss           0x00000000        0x0 G:/devkitPro/devkitARM/bin/../lib/gcc/arm-none-eabi/14.1.0/thumb/crtbegin.o
 .rodata.all_implied_fbits
                0x00000000       0x24 G:/devkitPro/devkitARM/bin/../lib/gcc/arm-none-eabi/14.1.0/thumb/crtbegin.o
 .text          0x00000000        0x0 _bn_audio_soundbank.bin.o
 .data          0x00000000        0x0 _bn_audio_soundbank.bin.o
 .bss           0x00000000        0x0 _bn_audio_soundbank.bin.o
 .text          0x00000000        0x0 bg01_bn_gfx.o
 .data          0x00000000        0x0 bg01_bn_gfx.o
 .bss           0x00000000        0x0 bg01_bn_gfx.o
 .text          0x00000000        0x0 bg02_bn_gfx.o
 .data          0x00000000        0x0 bg02_bn_gfx.o
 .bss           0x00000000        0x0 bg02_bn_gfx.o
 .text          0x00000000        0x0 common_variable_8x16_font_bn_gfx.o
 .data          0x00000000        0x0 common_variable_8x16_font_bn_gfx.o
 .bss           0x00000000        0x0 common_variable_8x16_font_bn_gfx.o
 .text          0x00000000        0x0 font01_bn_gfx.o
 .data          0x00000000        0x0 font01_bn_gfx.o
 .bss           0x00000000        0x0 font01_bn_gfx.o
 .rodata        0x00000000     0x2f20 font01_bn_gfx.o
 .text          0x00000000        0x0 kuro_bn_gfx.o
 .data          0x00000000        0x0 kuro_bn_gfx.o
 .bss           0x00000000        0x0 kuro_bn_gfx.o
 .text          0x00000000        0x0 kuro2_bn_gfx.o
 .data          0x00000000        0x0 kuro2_bn_gfx.o
 .bss           0x00000000        0x0 kuro2_bn_gfx.o
 .rodata        0x00000000      0x860 kuro2_bn_gfx.o
 .text          0x00000000        0x0 sp01_bn_gfx.o
 .data          0x00000000        0x0 sp01_bn_gfx.o
 .bss           0x00000000        0x0 sp01_bn_gfx.o
 .text          0x00000000        0x0 sp02_bn_gfx.o
 .data          0x00000000        0x0 sp02_bn_gfx.o
 .bss           0x00000000        0x0 sp02_bn_gfx.o
 .text          0x00000000        0x0 textbox_bn_gfx.o
 .data          0x00000000        0x0 textbox_bn_gfx.o
 .bss           0x00000000        0x0 textbox_bn_gfx.o
 .rodata        0x00000000      0x960 textbox_bn_gfx.o
 .text          0x00000000        0x0 common_info.o
 .data          0x00000000        0x0 common_info.o
 .bss           0x00000000        0x0 common_info.o
 .group         0x00000000        0xc common_stats.o
 .group         0x00000000        0xc common_stats.o
 .text          0x00000000        0x0 common_stats.o
 .data          0x00000000        0x0 common_stats.o
 .bss           0x00000000        0x0 common_stats.o
 .rodata._ZN6common5stats8set_modeENS0_9mode_typeE.str1.4
                0x00000000       0x8f common_stats.o
 .text._ZN6common5stats8set_modeENS0_9mode_typeE
                0x00000000      0x2d4 common_stats.o
 .text._ZN6common5statsC2ERN2bn21sprite_text_generatorE
                0x00000000       0x3c common_stats.o
 .rodata._ZN6common5stats6updateEv.str1.4
                0x00000000        0xa common_stats.o
 .text._ZN6common5stats6updateEv
                0x00000000      0x194 common_stats.o
 .group         0x00000000        0xc main.o
 .group         0x00000000        0xc main.o
 .group         0x00000000        0xc main.o
 .group         0x00000000        0xc main.o
 .group         0x00000000        0xc main.o
 .text          0x00000000        0x0 main.o
 .data          0x00000000        0x0 main.o
 .bss           0x00000000        0x0 main.o
 .group         0x00000000        0xc bn_affine_bg_animate_actions.o
 .group         0x00000000        0xc bn_affine_bg_animate_actions.o
 .group         0x00000000        0xc bn_affine_bg_animate_actions.o
 .group         0x00000000        0xc bn_affine_bg_animate_actions.o
 .group         0x00000000        0xc bn_affine_bg_animate_actions.o
 .group         0x00000000        0xc bn_affine_bg_animate_actions.o
 .group         0x00000000        0xc bn_affine_bg_animate_actions.o
 .group         0x00000000        0xc bn_affine_bg_animate_actions.o
 .group         0x00000000        0xc bn_affine_bg_animate_actions.o
 .text          0x00000000        0x0 bn_affine_bg_animate_actions.o
 .data          0x00000000        0x0 bn_affine_bg_animate_actions.o
 .bss           0x00000000        0x0 bn_affine_bg_animate_actions.o
 .text._ZN2bn25iaffine_bg_animate_action9_set_refsERNS_13affine_bg_ptrERNS_18affine_bg_map_itemERNS_7ivectorItEE
                0x00000000        0x4 bn_affine_bg_animate_actions.o
 .text._ZN2bn25iaffine_bg_animate_action7_assignERKS0_
                0x00000000       0x10 bn_affine_bg_animate_actions.o
 .text._ZN2bn32iaffine_bg_cached_animate_action9_set_refsERNS_13affine_bg_ptrERNS_7ivectorINS_17affine_bg_map_ptrEEE
                0x00000000        0x4 bn_affine_bg_animate_actions.o
 .text._ZN2bn32iaffine_bg_cached_animate_action7_assignERKS0_
                0x00000000       0x10 bn_affine_bg_animate_actions.o
 .text._ZN3_bn6assert9show_argsIJA16_ciA4_ciEEEvPKcS5_S5_iDpRKT_
                0x00000000       0x58 bn_affine_bg_animate_actions.o
 .text._ZN3_bn6assert9show_argsIJA23_ciA4_ciEEEvPKcS5_S5_iDpRKT_
                0x00000000       0x58 bn_affine_bg_animate_actions.o
 .rodata._ZN2bn25iaffine_bg_animate_action6updateEv.str1.4
                0x00000000       0x90 bn_affine_bg_animate_actions.o
 .text._ZN2bn25iaffine_bg_animate_action6updateEv
                0x00000000       0xb8 bn_affine_bg_animate_actions.o
 .text._ZN2bn32iaffine_bg_cached_animate_action6updateEv
                0x00000000       0xa4 bn_affine_bg_animate_actions.o
 .text._ZN3_bn6assert9show_argsIA23_ciEEvPKcS4_S4_iRKT_RKT0_
                0x00000000       0x54 bn_affine_bg_animate_actions.o
 .rodata._ZN2bn25iaffine_bg_animate_action16set_wait_updatesEi.str1.4
                0x00000000       0x98 bn_affine_bg_animate_actions.o
 .text._ZN2bn25iaffine_bg_animate_action16set_wait_updatesEi
                0x00000000       0x68 bn_affine_bg_animate_actions.o
 .text._ZN2bn32iaffine_bg_cached_animate_action16set_wait_updatesEi
                0x00000000       0x68 bn_affine_bg_animate_actions.o
 .rodata._ZN2bn25iaffine_bg_animate_action19_assign_map_indexesERKNS_4spanIKtEE.str1.4
                0x00000000       0x9f bn_affine_bg_animate_actions.o
 .text._ZN2bn25iaffine_bg_animate_action19_assign_map_indexesERKNS_4spanIKtEE
                0x00000000       0x84 bn_affine_bg_animate_actions.o
 .text._ZN3_bn6assert9show_argsIJA28_ciA4_ciEEEvPKcS5_S5_iDpRKT_
                0x00000000       0x58 bn_affine_bg_animate_actions.o
 .rodata._ZN2bn32iaffine_bg_cached_animate_action19_assign_map_indexesERKNS_18affine_bg_map_itemERKNS_4spanIKtEE.str1.4
                0x00000000       0x46 bn_affine_bg_animate_actions.o
 .text._ZN2bn32iaffine_bg_cached_animate_action19_assign_map_indexesERKNS_18affine_bg_map_itemERKNS_4spanIKtEE
                0x00000000      0x104 bn_affine_bg_animate_actions.o
 .text._ZN3_bn6assert9show_argsIJA21_ciA4_ciEEEvPKcS5_S5_iDpRKT_
                0x00000000       0x58 bn_affine_bg_animate_actions.o
 .rodata._ZN2bn32iaffine_bg_cached_animate_action12_assign_mapsENS_4spanINS_17affine_bg_map_ptrEEE.str1.4
                0x00000000       0x5d bn_affine_bg_animate_actions.o
 .text._ZN2bn32iaffine_bg_cached_animate_action12_assign_mapsENS_4spanINS_17affine_bg_map_ptrEEE
                0x00000000       0x9c bn_affine_bg_animate_actions.o
 .rodata._ZN2bn32iaffine_bg_cached_animate_actionaSERKS0_.str1.4
                0x00000000       0x77 bn_affine_bg_animate_actions.o
 .text._ZN2bn32iaffine_bg_cached_animate_actionaSERKS0_
                0x00000000       0xfc bn_affine_bg_animate_actions.o
 .text._ZN2bn32iaffine_bg_cached_animate_actionaSEOS0_
                0x00000000      0x118 bn_affine_bg_animate_actions.o
 .rodata._ZN2bn25iaffine_bg_animate_actionaSEOS0_.str1.4
                0x00000000       0x4f bn_affine_bg_animate_actions.o
 .text._ZN2bn25iaffine_bg_animate_actionaSEOS0_
                0x00000000       0xcc bn_affine_bg_animate_actions.o
 .text._ZN2bn32iaffine_bg_cached_animate_action12_assign_mapsERKNS_7ivectorINS_17affine_bg_map_ptrEEE
                0x00000000       0x8c bn_affine_bg_animate_actions.o
 .text._ZN2bn32iaffine_bg_cached_animate_action12_assign_mapsEONS_7ivectorINS_17affine_bg_map_ptrEEE
                0x00000000       0xa0 bn_affine_bg_animate_actions.o
 .text._ZN2bn25iaffine_bg_animate_action19_assign_map_indexesERKNS_7ivectorItEE
                0x00000000       0x60 bn_affine_bg_animate_actions.o
 .text._ZN2bn25iaffine_bg_animate_actionaSERKS0_
                0x00000000       0xcc bn_affine_bg_animate_actions.o
 .group         0x00000000        0xc bn_audio_manager.o
 .group         0x00000000        0xc bn_audio_manager.o
 .group         0x00000000        0xc bn_audio_manager.o
 .group         0x00000000        0xc bn_audio_manager.o
 .group         0x00000000        0xc bn_audio_manager.o
 .group         0x00000000        0xc bn_audio_manager.o
 .group         0x00000000        0xc bn_audio_manager.o
 .group         0x00000000        0xc bn_audio_manager.o
 .group         0x00000000        0xc bn_audio_manager.o
 .group         0x00000000        0xc bn_audio_manager.o
 .group         0x00000000        0xc bn_audio_manager.o
 .group         0x00000000        0xc bn_audio_manager.o
 .group         0x00000000        0xc bn_audio_manager.o
 .group         0x00000000        0xc bn_audio_manager.o
 .group         0x00000000        0xc bn_audio_manager.o
 .group         0x00000000        0xc bn_audio_manager.o
 .group         0x00000000        0xc bn_audio_manager.o
 .group         0x00000000        0xc bn_audio_manager.o
 .group         0x00000000        0xc bn_audio_manager.o
 .group         0x00000000        0xc bn_audio_manager.o
 .group         0x00000000        0xc bn_audio_manager.o
 .group         0x00000000        0xc bn_audio_manager.o
 .group         0x00000000        0xc bn_audio_manager.o
 .group         0x00000000        0xc bn_audio_manager.o
 .text          0x00000000        0x0 bn_audio_manager.o
 .data          0x00000000        0x0 bn_audio_manager.o
 .bss           0x00000000        0x0 bn_audio_manager.o
 .text._ZN2bn5audio16update_on_vblankEv
                0x00000000        0xc bn_audio_manager.o
 .text._ZN2bn5audio20set_update_on_vblankEb
                0x00000000        0xc bn_audio_manager.o
 .text._ZN2bn5music7playingEv
                0x00000000       0x10 bn_audio_manager.o
 .text._ZN2bn5music12playing_itemEv
                0x00000000       0x30 bn_audio_manager.o
 .text._ZN2bn5music6pausedEv
                0x00000000       0x10 bn_audio_manager.o
 .text._ZN2bn5sound13master_volumeEv
                0x00000000       0x10 bn_audio_manager.o
 .text._ZN2bn6jingle7playingEv
                0x00000000       0x10 bn_audio_manager.o
 .text._ZN2bn6jingle12playing_itemEv
                0x00000000       0x30 bn_audio_manager.o
 .text._ZN2bn9dmg_music7playingEv
                0x00000000       0x14 bn_audio_manager.o
 .text._ZN2bn9dmg_music12playing_itemEv
                0x00000000       0x34 bn_audio_manager.o
 .text._ZN2bn9dmg_music6pausedEv
                0x00000000       0x10 bn_audio_manager.o
 .text._ZN2bn9dmg_music13master_volumeEv
                0x00000000       0x10 bn_audio_manager.o
 .text._ZN2bn13audio_manager6enableEv
                0x00000000        0xc bn_audio_manager.o
 .text._ZN2bn13audio_manager13music_playingEv
                0x00000000       0x10 bn_audio_manager.o
 .text._ZN2bn13audio_manager18playing_music_itemEv
                0x00000000       0x30 bn_audio_manager.o
 .text._ZN2bn13audio_manager12music_pausedEv
                0x00000000       0x10 bn_audio_manager.o
 .text._ZN2bn13audio_manager14jingle_playingEv
                0x00000000       0x10 bn_audio_manager.o
 .text._ZN2bn13audio_manager19playing_jingle_itemEv
                0x00000000       0x30 bn_audio_manager.o
 .text._ZN2bn13audio_manager17dmg_music_playingEv
                0x00000000       0x14 bn_audio_manager.o
 .text._ZN2bn13audio_manager22playing_dmg_music_itemEv
                0x00000000       0x34 bn_audio_manager.o
 .text._ZN2bn13audio_manager16dmg_music_pausedEv
                0x00000000       0x10 bn_audio_manager.o
 .text._ZN2bn13audio_manager23dmg_music_master_volumeEv
                0x00000000       0x10 bn_audio_manager.o
 .text._ZNK2bn12sound_handle6activeEv
                0x00000000       0x14 bn_audio_manager.o
 .text._ZN2bn13audio_manager19sound_master_volumeEv
                0x00000000       0x10 bn_audio_manager.o
 .text._ZN2bn13audio_manager16update_on_vblankEv
                0x00000000        0xc bn_audio_manager.o
 .text._ZN2bn13audio_manager20set_update_on_vblankEb
                0x00000000        0xc bn_audio_manager.o
 .text._ZN3_bn6assert9show_argsIA19_ciEEvPKcS4_S4_iRKT_RKT0_
                0x00000000       0x54 bn_audio_manager.o
 .text._ZN3_bn6assert9show_argsIA36_ciEEvPKcS4_S4_iRKT_RKT0_
                0x00000000       0x54 bn_audio_manager.o
 .text._ZN2bn13audio_manager10play_musicENS_10music_itemENS_7fixed_tILi12EEEb
                0x00000000       0xa8 bn_audio_manager.o
 .rodata._ZN2bn13audio_manager10stop_musicEv.str1.4
                0x00000000        0xb bn_audio_manager.o
 .text._ZN2bn13audio_manager10stop_musicEv
                0x00000000       0x64 bn_audio_manager.o
 .rodata._ZN2bn13audio_manager11play_jingleENS_10music_itemENS_7fixed_tILi12EEE.str1.4
                0x00000000        0xc bn_audio_manager.o
 .text._ZN2bn13audio_manager11play_jingleENS_10music_itemENS_7fixed_tILi12EEE
                0x00000000       0x74 bn_audio_manager.o
 .rodata._ZN2bn13audio_manager14play_dmg_musicERKNS_14dmg_music_itemEib.str1.4
                0x00000000        0xf bn_audio_manager.o
 .text._ZN2bn13audio_manager14play_dmg_musicERKNS_14dmg_music_itemEib
                0x00000000       0x88 bn_audio_manager.o
 .rodata._ZN2bn13audio_manager14stop_dmg_musicEv.str1.4
                0x00000000        0xf bn_audio_manager.o
 .text._ZN2bn13audio_manager14stop_dmg_musicEv
                0x00000000       0x64 bn_audio_manager.o
 .rodata._ZN2bn13audio_manager27set_dmg_music_master_volumeENS_23dmg_music_master_volumeE.str1.4
                0x00000000       0x1c bn_audio_manager.o
 .text._ZN2bn13audio_manager27set_dmg_music_master_volumeENS_23dmg_music_master_volumeE
                0x00000000       0x64 bn_audio_manager.o
 .rodata._ZN2bn13audio_manager23set_sound_master_volumeENS_7fixed_tILi12EEE.str1.4
                0x00000000       0x18 bn_audio_manager.o
 .text._ZN2bn13audio_manager23set_sound_master_volumeENS_7fixed_tILi12EEE
                0x00000000       0x78 bn_audio_manager.o
 .rodata._ZN2bn13audio_manager15stop_all_soundsEv.str1.4
                0x00000000       0x10 bn_audio_manager.o
 .text._ZN2bn13audio_manager15stop_all_soundsEv
                0x00000000       0x88 bn_audio_manager.o
 .text._ZN2bn5sound8stop_allEv
                0x00000000        0xc bn_audio_manager.o
 .rodata._ZN2bn13audio_manager10stop_soundEt.str1.4
                0x00000000        0xb bn_audio_manager.o
 .text._ZN2bn13audio_manager10stop_soundEt
                0x00000000       0x98 bn_audio_manager.o
 .text._ZN2bn12sound_handle4stopEv
                0x00000000       0x10 bn_audio_manager.o
 .rodata._ZN2bn13audio_manager13release_soundEt.str1.4
                0x00000000        0xe bn_audio_manager.o
 .text._ZN2bn13audio_manager13release_soundEt
                0x00000000       0x98 bn_audio_manager.o
 .text._ZN2bn12sound_handle7releaseEv
                0x00000000       0x10 bn_audio_manager.o
 .text._ZN2bn5music4stopEv
                0x00000000       0x64 bn_audio_manager.o
 .text._ZN2bn9dmg_music4stopEv
                0x00000000       0x64 bn_audio_manager.o
 .text._ZN2bn9dmg_music17set_master_volumeENS_23dmg_music_master_volumeE
                0x00000000       0x64 bn_audio_manager.o
 .text._ZN2bn6jingle4playENS_10music_itemE
                0x00000000       0x74 bn_audio_manager.o
 .text._ZNK2bn10music_item11play_jingleEv
                0x00000000       0x78 bn_audio_manager.o
 .text._ZN2bn5music4playENS_10music_itemE
                0x00000000       0x88 bn_audio_manager.o
 .text._ZNK2bn10music_item4playEv
                0x00000000       0x8c bn_audio_manager.o
 .text._ZN2bn9dmg_music4playERKNS_14dmg_music_itemE
                0x00000000       0x8c bn_audio_manager.o
 .text._ZNK2bn14dmg_music_item4playEv
                0x00000000       0x8c bn_audio_manager.o
 .rodata._ZNK2bn14dmg_music_item4playEib.str1.4
                0x00000000       0x36 bn_audio_manager.o
 .text._ZNK2bn14dmg_music_item4playEib
                0x00000000       0xb0 bn_audio_manager.o
 .text._ZNK2bn14dmg_music_item4playEi
                0x00000000       0xb4 bn_audio_manager.o
 .text._ZN2bn9dmg_music4playERKNS_14dmg_music_itemEi
                0x00000000       0xb4 bn_audio_manager.o
 .text._ZN2bn9dmg_music4playERKNS_14dmg_music_itemEib
                0x00000000       0xbc bn_audio_manager.o
 .rodata._ZN2bn13audio_manager14music_positionEv.str1.4
                0x00000000       0x29 bn_audio_manager.o
 .text._ZN2bn13audio_manager14music_positionEv
                0x00000000       0x44 bn_audio_manager.o
 .rodata._ZN2bn13audio_manager18set_music_positionEi.str1.4
                0x00000000       0x13 bn_audio_manager.o
 .text._ZN2bn13audio_manager18set_music_positionEi
                0x00000000       0x84 bn_audio_manager.o
 .rodata._ZN2bn13audio_manager12music_volumeEv.str1.4
                0x00000000        0xd bn_audio_manager.o
 .text._ZN2bn13audio_manager12music_volumeEv
                0x00000000       0x44 bn_audio_manager.o
 .rodata._ZN2bn13audio_manager16set_music_volumeENS_7fixed_tILi12EEE.str1.4
                0x00000000       0x11 bn_audio_manager.o
 .text._ZN2bn13audio_manager16set_music_volumeENS_7fixed_tILi12EEE
                0x00000000       0x9c bn_audio_manager.o
 .rodata._ZN2bn13audio_manager11music_tempoEv.str1.4
                0x00000000        0xc bn_audio_manager.o
 .text._ZN2bn13audio_manager11music_tempoEv
                0x00000000       0x44 bn_audio_manager.o
 .rodata._ZN2bn13audio_manager15set_music_tempoENS_7fixed_tILi12EEE.str1.4
                0x00000000       0x10 bn_audio_manager.o
 .text._ZN2bn13audio_manager15set_music_tempoENS_7fixed_tILi12EEE
                0x00000000       0x9c bn_audio_manager.o
 .rodata._ZN2bn13audio_manager11music_pitchEv.str1.4
                0x00000000        0xc bn_audio_manager.o
 .text._ZN2bn13audio_manager11music_pitchEv
                0x00000000       0x44 bn_audio_manager.o
 .rodata._ZN2bn13audio_manager15set_music_pitchENS_7fixed_tILi12EEE.str1.4
                0x00000000       0x10 bn_audio_manager.o
 .text._ZN2bn13audio_manager15set_music_pitchENS_7fixed_tILi12EEE
                0x00000000       0x98 bn_audio_manager.o
 .text._ZN2bn5music8positionEv
                0x00000000       0x44 bn_audio_manager.o
 .text._ZN2bn5music6volumeEv
                0x00000000       0x44 bn_audio_manager.o
 .text._ZN2bn5music5tempoEv
                0x00000000       0x44 bn_audio_manager.o
 .text._ZN2bn5music5pitchEv
                0x00000000       0x44 bn_audio_manager.o
 .rodata._ZN2bn5music12set_positionEi.str1.4
                0x00000000       0x43 bn_audio_manager.o
 .text._ZN2bn5music12set_positionEi
                0x00000000       0xac bn_audio_manager.o
 .rodata._ZN2bn13audio_manager11pause_musicEv.str1.4
                0x00000000       0x24 bn_audio_manager.o
 .text._ZN2bn13audio_manager11pause_musicEv
                0x00000000       0x98 bn_audio_manager.o
 .text._ZN2bn5music5pauseEv
                0x00000000        0xc bn_audio_manager.o
 .rodata._ZN2bn13audio_manager16resume_dmg_musicEv.str1.4
                0x00000000       0x2c bn_audio_manager.o
 .text._ZN2bn13audio_manager16resume_dmg_musicEv
                0x00000000       0x74 bn_audio_manager.o
 .text._ZN2bn9dmg_music6resumeEv
                0x00000000       0x74 bn_audio_manager.o
 .text._ZN3_bn6assert9show_argsIA20_cEEvPKcS4_S4_iRKT_
                0x00000000       0x48 bn_audio_manager.o
 .rodata._ZN2bn13audio_manager12resume_musicEv.str1.4
                0x00000000       0x24 bn_audio_manager.o
 .text._ZN2bn13audio_manager12resume_musicEv
                0x00000000       0x74 bn_audio_manager.o
 .text._ZN2bn5music6resumeEv
                0x00000000       0x74 bn_audio_manager.o
 .rodata._ZN2bn13audio_manager13jingle_volumeEv.str1.4
                0x00000000       0x2a bn_audio_manager.o
 .text._ZN2bn13audio_manager13jingle_volumeEv
                0x00000000       0x44 bn_audio_manager.o
 .rodata._ZN2bn13audio_manager17set_jingle_volumeENS_7fixed_tILi12EEE.str1.4
                0x00000000       0x12 bn_audio_manager.o
 .text._ZN2bn13audio_manager17set_jingle_volumeENS_7fixed_tILi12EEE
                0x00000000       0x98 bn_audio_manager.o
 .text._ZN2bn6jingle6volumeEv
                0x00000000       0x44 bn_audio_manager.o
 .text._ZN3_bn6assert9show_argsIA29_cEEvPKcS4_S4_iRKT_
                0x00000000       0x48 bn_audio_manager.o
 .text._ZN2bn9dmg_music8positionEv
                0x00000000       0x44 bn_audio_manager.o
 .rodata._ZN2bn13audio_manager22set_dmg_music_positionERKNS_18dmg_music_positionE.str1.4
                0x00000000       0x17 bn_audio_manager.o
 .text._ZN2bn13audio_manager22set_dmg_music_positionERKNS_18dmg_music_positionE
                0x00000000       0xa8 bn_audio_manager.o
 .text._ZN2bn9dmg_music12set_positionEii
                0x00000000       0x6c bn_audio_manager.o
 .text._ZN2bn9dmg_music12set_positionERKNS_18dmg_music_positionE
                0x00000000        0xc bn_audio_manager.o
 .rodata._ZN2bn13audio_manager21dmg_music_left_volumeEv.str1.4
                0x00000000       0x16 bn_audio_manager.o
 .text._ZN2bn13audio_manager21dmg_music_left_volumeEv
                0x00000000       0x44 bn_audio_manager.o
 .rodata._ZN2bn13audio_manager22dmg_music_right_volumeEv.str1.4
                0x00000000       0x17 bn_audio_manager.o
 .text._ZN2bn13audio_manager22dmg_music_right_volumeEv
                0x00000000       0x44 bn_audio_manager.o
 .rodata._ZN2bn13audio_manager20set_dmg_music_volumeENS_7fixed_tILi12EEES2_.str1.4
                0x00000000       0x15 bn_audio_manager.o
 .text._ZN2bn13audio_manager20set_dmg_music_volumeENS_7fixed_tILi12EEES2_
                0x00000000       0xdc bn_audio_manager.o
 .text._ZN2bn13audio_manager25set_dmg_music_left_volumeENS_7fixed_tILi12EEE
                0x00000000       0x18 bn_audio_manager.o
 .text._ZN2bn13audio_manager26set_dmg_music_right_volumeENS_7fixed_tILi12EEE
                0x00000000       0x1c bn_audio_manager.o
 .text._ZN2bn13audio_manager18dmg_music_positionEv
                0x00000000       0x44 bn_audio_manager.o
 .text._ZN2bn9dmg_music11left_volumeEv
                0x00000000       0x44 bn_audio_manager.o
 .text._ZN2bn9dmg_music12right_volumeEv
                0x00000000       0x44 bn_audio_manager.o
 .text._ZN3_bn6assert9show_argsIA28_cEEvPKcS4_S4_iRKT_
                0x00000000       0x48 bn_audio_manager.o
 .rodata._ZN2bn13audio_manager15pause_dmg_musicEv.str1.4
                0x00000000       0x2c bn_audio_manager.o
 .text._ZN2bn13audio_manager15pause_dmg_musicEv
                0x00000000       0x98 bn_audio_manager.o
 .text._ZN2bn9dmg_music5pauseEv
                0x00000000        0xc bn_audio_manager.o
 .text._ZN3_bn6assert9show_argsIA32_cEEvPKcS4_S4_iRKT_
                0x00000000       0x48 bn_audio_manager.o
 .text._ZN3_bn6assert9show_argsIA22_ctEEvPKcS4_S4_iRKT_RKT0_
                0x00000000       0x54 bn_audio_manager.o
 .rodata._ZN2bn13audio_manager10sound_itemEt.str1.4
                0x00000000       0x22 bn_audio_manager.o
 .text._ZN2bn13audio_manager10sound_itemEt
                0x00000000       0x98 bn_audio_manager.o
 .text._ZNK2bn12sound_handle4itemEv
                0x00000000       0x10 bn_audio_manager.o
 .rodata._ZN2bn13audio_manager11sound_speedEt.str1.4
                0x00000000        0xc bn_audio_manager.o
 .text._ZN2bn13audio_manager11sound_speedEt
                0x00000000       0x98 bn_audio_manager.o
 .text._ZNK2bn12sound_handle5speedEv
                0x00000000       0x10 bn_audio_manager.o
 .rodata._ZN2bn13audio_manager13sound_panningEt.str1.4
                0x00000000        0xe bn_audio_manager.o
 .text._ZN2bn13audio_manager13sound_panningEt
                0x00000000       0x98 bn_audio_manager.o
 .text._ZNK2bn12sound_handle7panningEv
                0x00000000       0x10 bn_audio_manager.o
 .rodata._ZN2bn13audio_manager17set_sound_panningEtNS_7fixed_tILi12EEE.str1.4
                0x00000000       0x12 bn_audio_manager.o
 .text._ZN2bn13audio_manager17set_sound_panningEtNS_7fixed_tILi12EEE
                0x00000000      0x120 bn_audio_manager.o
 .text._ZN2bn13ostringstream6appendILi12EEEvNS_7fixed_tIXT_EEE
                0x00000000       0xa0 bn_audio_manager.o
 .text._ZN3_bn6assert9show_argsIA25_cN2bn7fixed_tILi12EEEEEvPKcS7_S7_iRKT_RKT0_
                0x00000000       0x54 bn_audio_manager.o
 .rodata._ZN2bn5music4playENS_10music_itemENS_7fixed_tILi12EEE.str1.4
                0x00000000       0x19 bn_audio_manager.o
 .text._ZN2bn5music4playENS_10music_itemENS_7fixed_tILi12EEE
                0x00000000       0xb8 bn_audio_manager.o
 .text._ZN2bn5music4playENS_10music_itemENS_7fixed_tILi12EEEb
                0x00000000       0xc0 bn_audio_manager.o
 .rodata._ZN2bn5music10set_volumeENS_7fixed_tILi12EEE.str1.4
                0x00000000        0xb bn_audio_manager.o
 .text._ZN2bn5music10set_volumeENS_7fixed_tILi12EEE
                0x00000000       0x3c bn_audio_manager.o
 .rodata._ZN2bn5sound17set_master_volumeENS_7fixed_tILi12EEE.str1.4
                0x00000000       0x23 bn_audio_manager.o
 .text._ZN2bn5sound17set_master_volumeENS_7fixed_tILi12EEE
                0x00000000       0xa0 bn_audio_manager.o
 .rodata._ZN2bn6jingle4playENS_10music_itemENS_7fixed_tILi12EEE.str1.4
                0x00000000       0x10 bn_audio_manager.o
 .text._ZN2bn6jingle4playENS_10music_itemENS_7fixed_tILi12EEE
                0x00000000       0x9c bn_audio_manager.o
 .text._ZN2bn6jingle10set_volumeENS_7fixed_tILi12EEE
                0x00000000       0x3c bn_audio_manager.o
 .text._ZN2bn9dmg_music10set_volumeENS_7fixed_tILi12EEE
                0x00000000       0x40 bn_audio_manager.o
 .text._ZNK2bn10music_item4playENS_7fixed_tILi12EEEb
                0x00000000       0xc4 bn_audio_manager.o
 .text._ZNK2bn10music_item11play_jingleENS_7fixed_tILi12EEE
                0x00000000       0x9c bn_audio_manager.o
 .text._ZNK2bn10music_item4playENS_7fixed_tILi12EEE
                0x00000000       0xb8 bn_audio_manager.o
 .text._ZN3_bn6assert9show_argsIA26_cN2bn7fixed_tILi12EEEEEvPKcS7_S7_iRKT_RKT0_
                0x00000000       0x54 bn_audio_manager.o
 .rodata._ZN2bn5music9set_tempoENS_7fixed_tILi12EEE.str1.4
                0x00000000       0x26 bn_audio_manager.o
 .text._ZN2bn5music9set_tempoENS_7fixed_tILi12EEE
                0x00000000       0x44 bn_audio_manager.o
 .rodata._ZN2bn5music9set_pitchENS_7fixed_tILi12EEE.str1.4
                0x00000000       0x26 bn_audio_manager.o
 .text._ZN2bn5music9set_pitchENS_7fixed_tILi12EEE
                0x00000000       0x44 bn_audio_manager.o
 .text._ZN3_bn6assert9show_argsIA27_cN2bn7fixed_tILi12EEEEEvPKcS7_S7_iRKT_RKT0_
                0x00000000       0x54 bn_audio_manager.o
 .rodata._ZN2bn12sound_handle11set_panningENS_7fixed_tILi12EEE.str1.4
                0x00000000       0x3f bn_audio_manager.o
 .text._ZN2bn12sound_handle11set_panningENS_7fixed_tILi12EEE
                0x00000000       0x48 bn_audio_manager.o
 .text._ZN3_bn6assert9show_argsIA30_cN2bn7fixed_tILi12EEEEEvPKcS7_S7_iRKT_RKT0_
                0x00000000       0x54 bn_audio_manager.o
 .rodata._ZN2bn9dmg_music15set_left_volumeENS_7fixed_tILi12EEE.str1.4
                0x00000000       0x2e bn_audio_manager.o
 .text._ZN2bn9dmg_music15set_left_volumeENS_7fixed_tILi12EEE
                0x00000000       0x48 bn_audio_manager.o
 .text._ZN3_bn6assert9show_argsIA31_cN2bn7fixed_tILi12EEEEEvPKcS7_S7_iRKT_RKT0_
                0x00000000       0x54 bn_audio_manager.o
 .rodata._ZN2bn9dmg_music16set_right_volumeENS_7fixed_tILi12EEE.str1.4
                0x00000000       0x33 bn_audio_manager.o
 .text._ZN2bn9dmg_music16set_right_volumeENS_7fixed_tILi12EEE
                0x00000000       0x4c bn_audio_manager.o
 .text._ZN2bn9dmg_music10set_volumeENS_7fixed_tILi12EEES2_
                0x00000000       0x5c bn_audio_manager.o
 .text._ZN3_bn6assert9show_argsIJA27_cN2bn7fixed_tILi12EEEA4_cS5_EEEvPKcS8_S8_iDpRKT_
                0x00000000      0x110 bn_audio_manager.o
 .rodata._ZN2bn13audio_manager15set_sound_speedEtNS_7fixed_tILi12EEE.str1.4
                0x00000000       0x2f bn_audio_manager.o
 .text._ZN2bn13audio_manager15set_sound_speedEtNS_7fixed_tILi12EEE
                0x00000000      0x140 bn_audio_manager.o
 .rodata._ZN2bn12sound_handle9set_speedENS_7fixed_tILi12EEE.str1.4
                0x00000000       0x25 bn_audio_manager.o
 .text._ZN2bn12sound_handle9set_speedENS_7fixed_tILi12EEE
                0x00000000       0x40 bn_audio_manager.o
 .rodata._ZN2bn14iunordered_mapIjNS_13audio_manager15sound_data_typeENS_15identity_hasherENS_8equal_toIjEEEclEjRKj.str1.4
                0x00000000       0x1d bn_audio_manager.o
 .text._ZN2bn14iunordered_mapIjNS_13audio_manager15sound_data_typeENS_15identity_hasherENS_8equal_toIjEEEclEjRKj
                0x00000000      0x124 bn_audio_manager.o
 .rodata._ZN2bn13audio_manager10play_soundEiNS_10sound_itemE.str1.4
                0x00000000       0x2c bn_audio_manager.o
 .text._ZN2bn13audio_manager10play_soundEiNS_10sound_itemE
                0x00000000       0xc4 bn_audio_manager.o
 .text._ZN2bn5sound4playENS_10sound_itemE
                0x00000000       0x10 bn_audio_manager.o
 .text._ZNK2bn10sound_item4playEv
                0x00000000       0x10 bn_audio_manager.o
 .rodata._ZN2bn5sound18play_with_priorityEiNS_10sound_itemE.str1.4
                0x00000000       0x38 bn_audio_manager.o
 .text._ZN2bn5sound18play_with_priorityEiNS_10sound_itemE
                0x00000000       0x4c bn_audio_manager.o
 .text._ZNK2bn10sound_item18play_with_priorityEi
                0x00000000       0x4c bn_audio_manager.o
 .text._ZN2bn13audio_manager10play_soundEiNS_10sound_itemENS_7fixed_tILi12EEES3_S3_
                0x00000000      0x13c bn_audio_manager.o
 .text._ZN2bn5sound4playENS_10sound_itemENS_7fixed_tILi12EEE
                0x00000000       0x48 bn_audio_manager.o
 .text._ZN2bn5sound4playENS_10sound_itemENS_7fixed_tILi12EEES3_S3_
                0x00000000       0x98 bn_audio_manager.o
 .text._ZNK2bn10sound_item4playENS_7fixed_tILi12EEES2_S2_
                0x00000000       0x10 bn_audio_manager.o
 .text._ZN2bn5sound18play_with_priorityEiNS_10sound_itemENS_7fixed_tILi12EEE
                0x00000000       0x74 bn_audio_manager.o
 .text._ZN2bn5sound18play_with_priorityEiNS_10sound_itemENS_7fixed_tILi12EEES3_S3_
                0x00000000       0xc0 bn_audio_manager.o
 .text._ZNK2bn10sound_item18play_with_priorityEiNS_7fixed_tILi12EEES2_S2_
                0x00000000       0x1c bn_audio_manager.o
 .text._ZNK2bn10sound_item4playENS_7fixed_tILi12EEE
                0x00000000       0x44 bn_audio_manager.o
 .text._ZNK2bn10sound_item18play_with_priorityEiNS_7fixed_tILi12EEE
                0x00000000       0x74 bn_audio_manager.o
 .group         0x00000000        0xc bn_best_fit_allocator.o
 .group         0x00000000        0xc bn_best_fit_allocator.o
 .group         0x00000000        0xc bn_best_fit_allocator.o
 .group         0x00000000        0xc bn_best_fit_allocator.o
 .group         0x00000000        0xc bn_best_fit_allocator.o
 .group         0x00000000        0xc bn_best_fit_allocator.o
 .group         0x00000000        0xc bn_best_fit_allocator.o
 .text          0x00000000        0x0 bn_best_fit_allocator.o
 .data          0x00000000        0x0 bn_best_fit_allocator.o
 .bss           0x00000000        0x0 bn_best_fit_allocator.o
 .text._ZN2bn18best_fit_allocator4freeEPv
                0x00000000      0x110 bn_best_fit_allocator.o
 .rodata._ZNK2bn18best_fit_allocator10log_statusEv.str1.4
                0x00000000       0x54 bn_best_fit_allocator.o
 .text._ZNK2bn18best_fit_allocator10log_statusEv
                0x00000000      0x16c bn_best_fit_allocator.o
 .text._ZN2bn18best_fit_allocator15_best_free_itemEi
                0x00000000       0x48 bn_best_fit_allocator.o
 .text._ZN2bn18best_fit_allocator5allocEi
                0x00000000      0x15c bn_best_fit_allocator.o
 .text._ZN3_bn6assert9show_argsIA14_ciEEvPKcS4_S4_iRKT_RKT0_
                0x00000000       0x54 bn_best_fit_allocator.o
 .rodata._ZN2bn18best_fit_allocator6callocEii.str1.4
                0x00000000       0x22 bn_best_fit_allocator.o
 .text._ZN2bn18best_fit_allocator6callocEii
                0x00000000       0x80 bn_best_fit_allocator.o
 .text._ZN3_bn6assert9show_argsIA19_ciEEvPKcS4_S4_iRKT_RKT0_
                0x00000000       0x54 bn_best_fit_allocator.o
 .rodata._ZN2bn18best_fit_allocator7reallocEPvi.str1.4
                0x00000000       0x63 bn_best_fit_allocator.o
 .text._ZN2bn18best_fit_allocator7reallocEPvi
                0x00000000       0xc4 bn_best_fit_allocator.o
 .group         0x00000000        0xc bn_bg_blocks_manager.o
 .group         0x00000000        0xc bn_bg_blocks_manager.o
 .group         0x00000000        0xc bn_bg_blocks_manager.o
 .group         0x00000000        0xc bn_bg_blocks_manager.o
 .group         0x00000000        0xc bn_bg_blocks_manager.o
 .group         0x00000000        0xc bn_bg_blocks_manager.o
 .group         0x00000000        0xc bn_bg_blocks_manager.o
 .group         0x00000000        0xc bn_bg_blocks_manager.o
 .group         0x00000000        0xc bn_bg_blocks_manager.o
 .group         0x00000000        0xc bn_bg_blocks_manager.o
 .group         0x00000000        0xc bn_bg_blocks_manager.o
 .group         0x00000000        0xc bn_bg_blocks_manager.o
 .group         0x00000000        0xc bn_bg_blocks_manager.o
 .group         0x00000000        0xc bn_bg_blocks_manager.o
 .group         0x00000000        0xc bn_bg_blocks_manager.o
 .group         0x00000000        0xc bn_bg_blocks_manager.o
 .group         0x00000000        0xc bn_bg_blocks_manager.o
 .group         0x00000000        0xc bn_bg_blocks_manager.o
 .group         0x00000000        0xc bn_bg_blocks_manager.o
 .group         0x00000000        0xc bn_bg_blocks_manager.o
 .group         0x00000000        0xc bn_bg_blocks_manager.o
 .group         0x00000000        0xc bn_bg_blocks_manager.o
 .group         0x00000000        0xc bn_bg_blocks_manager.o
 .group         0x00000000        0xc bn_bg_blocks_manager.o
 .group         0x00000000        0xc bn_bg_blocks_manager.o
 .group         0x00000000        0xc bn_bg_blocks_manager.o
 .group         0x00000000        0xc bn_bg_blocks_manager.o
 .group         0x00000000        0xc bn_bg_blocks_manager.o
 .group         0x00000000        0xc bn_bg_blocks_manager.o
 .group         0x00000000        0xc bn_bg_blocks_manager.o
 .group         0x00000000        0xc bn_bg_blocks_manager.o
 .group         0x00000000        0xc bn_bg_blocks_manager.o
 .text          0x00000000        0x0 bn_bg_blocks_manager.o
 .data          0x00000000        0x0 bn_bg_blocks_manager.o
 .bss           0x00000000        0x0 bn_bg_blocks_manager.o
 .text._ZN2bn17bg_blocks_manager12_GLOBAL__N_128_new_affine_map_blocks_countEiib
                0x00000000       0x50 bn_bg_blocks_manager.o
 .text._ZN2bn7bg_maps16used_cells_countEv
                0x00000000       0x3c bn_bg_blocks_manager.o
 .text._ZN2bn7bg_maps21available_cells_countEv
                0x00000000       0x10 bn_bg_blocks_manager.o
 .text._ZN2bn7bg_maps17used_blocks_countEv
                0x00000000       0x38 bn_bg_blocks_manager.o
 .text._ZN2bn7bg_maps22available_blocks_countEv
                0x00000000       0x10 bn_bg_blocks_manager.o
 .text._ZN2bn7bg_maps30new_affine_big_map_canvas_sizeEv
                0x00000000       0x14 bn_bg_blocks_manager.o
 .text._ZN2bn7bg_maps34set_new_affine_big_map_canvas_sizeENS_29affine_bg_big_map_canvas_sizeE
                0x00000000       0x10 bn_bg_blocks_manager.o
 .text._ZN2bn8bg_tiles16used_tiles_countEv
                0x00000000       0x3c bn_bg_blocks_manager.o
 .text._ZN2bn8bg_tiles21available_tiles_countEv
                0x00000000       0x10 bn_bg_blocks_manager.o
 .text._ZN2bn8bg_tiles17used_blocks_countEv
                0x00000000       0x38 bn_bg_blocks_manager.o
 .text._ZN2bn8bg_tiles22available_blocks_countEv
                0x00000000       0x10 bn_bg_blocks_manager.o
 .text._ZN2bn8bg_tiles12allow_offsetEv
                0x00000000       0x10 bn_bg_blocks_manager.o
 .text._ZN2bn8bg_tiles16set_allow_offsetEb
                0x00000000       0x10 bn_bg_blocks_manager.o
 .text._ZN2bn18regular_bg_map_ptrC2ERKS0_
                0x00000000       0x20 bn_bg_blocks_manager.o
 .text._ZNK2bn18regular_bg_map_ptr11compressionEv
                0x00000000       0x1c bn_bg_blocks_manager.o
 .text._ZN2bn20regular_bg_tiles_ptrC2ERKS0_
                0x00000000       0x20 bn_bg_blocks_manager.o
 .text._ZNK2bn20regular_bg_tiles_ptr2idEv
                0x00000000       0x18 bn_bg_blocks_manager.o
 .text._ZNK2bn20regular_bg_tiles_ptr11tiles_countEv
                0x00000000       0x18 bn_bg_blocks_manager.o
 .text._ZNK2bn20regular_bg_tiles_ptr11compressionEv
                0x00000000       0x1c bn_bg_blocks_manager.o
 .text._ZN2bn17affine_bg_map_ptrC2ERKS0_
                0x00000000       0x20 bn_bg_blocks_manager.o
 .text._ZNK2bn17affine_bg_map_ptr3bigEv
                0x00000000       0x18 bn_bg_blocks_manager.o
 .text._ZNK2bn17affine_bg_map_ptr11compressionEv
                0x00000000       0x1c bn_bg_blocks_manager.o
 .text._ZN2bn19affine_bg_tiles_ptrC2ERKS0_
                0x00000000       0x20 bn_bg_blocks_manager.o
 .text._ZNK2bn19affine_bg_tiles_ptr2idEv
                0x00000000       0x18 bn_bg_blocks_manager.o
 .text._ZNK2bn19affine_bg_tiles_ptr11tiles_countEv
                0x00000000       0x18 bn_bg_blocks_manager.o
 .text._ZNK2bn19affine_bg_tiles_ptr11compressionEv
                0x00000000       0x1c bn_bg_blocks_manager.o
 .text._ZN2bn17bg_blocks_manager16used_tiles_countEv
                0x00000000       0x3c bn_bg_blocks_manager.o
 .text._ZN2bn17bg_blocks_manager21available_tiles_countEv
                0x00000000       0x10 bn_bg_blocks_manager.o
 .text._ZN2bn17bg_blocks_manager22used_tile_blocks_countEv
                0x00000000       0x38 bn_bg_blocks_manager.o
 .text._ZN2bn17bg_blocks_manager27available_tile_blocks_countEv
                0x00000000       0x10 bn_bg_blocks_manager.o
 .text._ZN2bn17bg_blocks_manager20used_map_cells_countEv
                0x00000000       0x3c bn_bg_blocks_manager.o
 .text._ZN2bn17bg_blocks_manager25available_map_cells_countEv
                0x00000000       0x10 bn_bg_blocks_manager.o
 .text._ZN2bn17bg_blocks_manager21used_map_blocks_countEv
                0x00000000       0x38 bn_bg_blocks_manager.o
 .text._ZN2bn17bg_blocks_manager26available_map_blocks_countEv
                0x00000000       0x10 bn_bg_blocks_manager.o
 .text._ZN2bn17bg_blocks_manager30new_affine_big_map_canvas_sizeEv
                0x00000000       0x14 bn_bg_blocks_manager.o
 .text._ZN2bn17bg_blocks_manager34set_new_affine_big_map_canvas_sizeENS_29affine_bg_big_map_canvas_sizeE
                0x00000000       0x10 bn_bg_blocks_manager.o
 .text._ZN2bn17bg_blocks_manager18allow_tiles_offsetEv
                0x00000000       0x10 bn_bg_blocks_manager.o
 .text._ZN2bn17bg_blocks_manager22set_allow_tiles_offsetEb
                0x00000000       0x10 bn_bg_blocks_manager.o
 .text._ZN2bn7bg_maps10log_statusEv
                0x00000000        0xc bn_bg_blocks_manager.o
 .text._ZN2bn8bg_tiles10log_statusEv
                0x00000000        0xc bn_bg_blocks_manager.o
 .text._ZN2bn17bg_blocks_manager15increase_usagesEi
                0x00000000       0x18 bn_bg_blocks_manager.o
 .text._ZN2bn18regular_bg_map_ptraSERKS0_
                0x00000000       0x40 bn_bg_blocks_manager.o
 .text._ZN2bn20regular_bg_tiles_ptraSERKS0_
                0x00000000       0x40 bn_bg_blocks_manager.o
 .text._ZN2bn17affine_bg_map_ptraSERKS0_
                0x00000000       0x40 bn_bg_blocks_manager.o
 .text._ZN2bn17affine_bg_map_ptrD2Ev
                0x00000000       0x18 bn_bg_blocks_manager.o
 .text._ZN2bn19affine_bg_tiles_ptraSERKS0_
                0x00000000       0x40 bn_bg_blocks_manager.o
 .text._ZN2bn19affine_bg_tiles_ptrD2Ev
                0x00000000       0x18 bn_bg_blocks_manager.o
 .text._ZN2bn17bg_blocks_manager5hw_idEi
                0x00000000       0x14 bn_bg_blocks_manager.o
 .text._ZN2bn17bg_blocks_manager12hw_tiles_cbbEi
                0x00000000       0x14 bn_bg_blocks_manager.o
 .text._ZN2bn17bg_blocks_manager11tiles_countEi
                0x00000000       0x14 bn_bg_blocks_manager.o
 .text._ZN2bn17bg_blocks_manager14map_dimensionsEi
                0x00000000       0x18 bn_bg_blocks_manager.o
 .text._ZN2bn17bg_blocks_manager7big_mapEi
                0x00000000       0x14 bn_bg_blocks_manager.o
 .text._ZN2bn17bg_blocks_manager11compressionEi
                0x00000000       0x18 bn_bg_blocks_manager.o
 .text._ZN2bn17bg_blocks_manager24remove_regular_map_tilesEi
                0x00000000       0x38 bn_bg_blocks_manager.o
 .text._ZN2bn17bg_blocks_manager23remove_affine_map_tilesEi
                0x00000000       0x38 bn_bg_blocks_manager.o
 .text._ZN2bn17bg_blocks_manager18remove_map_paletteEi
                0x00000000       0x2c bn_bg_blocks_manager.o
 .text._ZN3_bn6assert9show_argsIA15_ciEEvPKcS4_S4_iRKT_RKT0_
                0x00000000       0x54 bn_bg_blocks_manager.o
 .text._ZNK2bn19regular_bg_map_item10decompressENS_4spanItEE
                0x00000000      0x104 bn_bg_blocks_manager.o
 .rodata._ZNK2bn19regular_bg_map_item10decompressERtRKNS_4sizeE.str1.4
                0x00000000       0x33 bn_bg_blocks_manager.o
 .text._ZNK2bn19regular_bg_map_item10decompressERtRKNS_4sizeE
                0x00000000       0x4c bn_bg_blocks_manager.o
 .rodata._ZNK2bn18affine_bg_map_item10decompressENS_4spanIhEE.str1.4
                0x00000000       0x1c bn_bg_blocks_manager.o
 .text._ZNK2bn18affine_bg_map_item10decompressENS_4spanIhEE
                0x00000000      0x100 bn_bg_blocks_manager.o
 .text._ZNK2bn18affine_bg_map_item10decompressERhRKNS_4sizeE
                0x00000000       0x4c bn_bg_blocks_manager.o
 .text._ZN3_bn6assert9show_argsIA33_cEEvPKcS4_S4_iRKT_
                0x00000000       0x48 bn_bg_blocks_manager.o
 .text._ZN2bn17bg_blocks_manager18find_regular_tilesERKNS_21regular_bg_tiles_itemE
                0x00000000       0x1c bn_bg_blocks_manager.o
 .text._ZN2bn17bg_blocks_manager17find_affine_tilesERKNS_20affine_bg_tiles_itemE
                0x00000000       0x1c bn_bg_blocks_manager.o
 .text._ZNK2bn20affine_bg_tiles_item10find_tilesEv
                0x00000000       0x30 bn_bg_blocks_manager.o
 .text._ZN2bn20regular_bg_tiles_ptr4findERKNS_21regular_bg_tiles_itemE
                0x00000000       0x30 bn_bg_blocks_manager.o
 .text._ZN2bn19affine_bg_tiles_ptr4findERKNS_20affine_bg_tiles_itemE
                0x00000000       0x30 bn_bg_blocks_manager.o
 .text._ZN2bn17bg_blocks_manager17regular_map_tilesEi
                0x00000000       0x44 bn_bg_blocks_manager.o
 .text._ZN2bn17bg_blocks_manager16affine_map_tilesEi
                0x00000000       0x44 bn_bg_blocks_manager.o
 .text._ZN2bn17bg_blocks_manager11map_paletteEi
                0x00000000       0x44 bn_bg_blocks_manager.o
 .text._ZNK2bn17affine_bg_map_ptr7paletteEv
                0x00000000       0x48 bn_bg_blocks_manager.o
 .text._ZN2bn17bg_blocks_manager14palette_offsetEi
                0x00000000       0x48 bn_bg_blocks_manager.o
 .text._ZNK2bn18regular_bg_map_ptr20palette_banks_offsetEv
                0x00000000       0x48 bn_bg_blocks_manager.o
 .text._ZN2bn17bg_blocks_manager19affine_tiles_offsetEi
                0x00000000       0x54 bn_bg_blocks_manager.o
 .text._ZNK2bn17affine_bg_map_ptr12tiles_offsetEv
                0x00000000       0x58 bn_bg_blocks_manager.o
 .text._ZN2bn17bg_blocks_manager20regular_tiles_offsetEi
                0x00000000       0x6c bn_bg_blocks_manager.o
 .text._ZNK2bn18regular_bg_map_ptr12tiles_offsetEv
                0x00000000       0x70 bn_bg_blocks_manager.o
 .text._ZN2bn17bg_blocks_manager20set_affine_map_tilesEiONS_19affine_bg_tiles_ptrE
                0x00000000      0x13c bn_bg_blocks_manager.o
 .text._ZN2bn17affine_bg_map_ptr9set_tilesERKNS_19affine_bg_tiles_ptrE
                0x00000000       0x44 bn_bg_blocks_manager.o
 .text._ZN2bn17affine_bg_map_ptr9set_tilesEONS_19affine_bg_tiles_ptrE
                0x00000000       0x14 bn_bg_blocks_manager.o
 .text._ZN2bn18regular_bg_map_ptr9set_tilesERKNS_20regular_bg_tiles_ptrE
                0x00000000       0x44 bn_bg_blocks_manager.o
 .text._ZN2bn18regular_bg_map_ptr9set_tilesEONS_20regular_bg_tiles_ptrE
                0x00000000       0x14 bn_bg_blocks_manager.o
 .text._ZN2bn18regular_bg_map_ptr11set_paletteERKNS_14bg_palette_ptrE
                0x00000000       0x24 bn_bg_blocks_manager.o
 .text._ZN2bn18regular_bg_map_ptr11set_paletteEONS_14bg_palette_ptrE
                0x00000000       0x14 bn_bg_blocks_manager.o
 .text._ZN2bn18regular_bg_map_ptr11set_paletteERKNS_15bg_palette_itemE
                0x00000000       0xf0 bn_bg_blocks_manager.o
 .text._ZN2bn17bg_blocks_manager12_GLOBAL__N_114_allocate_implEONS1_11create_dataE
                0x00000000       0xf0 bn_bg_blocks_manager.o
 .text._ZN2bn20regular_bg_tiles_ptr6createERKNS_21regular_bg_tiles_itemE
                0x00000000       0x18 bn_bg_blocks_manager.o
 .text._ZNK2bn21regular_bg_tiles_item12create_tilesEv
                0x00000000       0x18 bn_bg_blocks_manager.o
 .text._ZN2bn18regular_bg_map_ptr9set_tilesERKNS_21regular_bg_tiles_itemE
                0x00000000       0xb0 bn_bg_blocks_manager.o
 .text._ZNK2bn21regular_bg_tiles_item16create_new_tilesEv
                0x00000000       0x18 bn_bg_blocks_manager.o
 .text._ZN2bn20regular_bg_tiles_ptr15create_optionalERKNS_21regular_bg_tiles_itemE
                0x00000000       0x24 bn_bg_blocks_manager.o
 .text._ZNK2bn21regular_bg_tiles_item21create_tiles_optionalEv
                0x00000000       0x24 bn_bg_blocks_manager.o
 .text._ZNK2bn21regular_bg_tiles_item25create_new_tiles_optionalEv
                0x00000000       0x24 bn_bg_blocks_manager.o
 .text._ZN3_bn6assert9show_argsIJA31_cA15_cPKtA16_ciA17_ciA34_cN2bn11string_viewEEEEvPKcSC_SC_iDpRKT_
                0x00000000       0x90 bn_bg_blocks_manager.o
 .rodata._ZN2bn17bg_blocks_manager19create_affine_tilesERKNS_20affine_bg_tiles_itemEb.str1.4
                0x00000000       0x33 bn_bg_blocks_manager.o
 .text._ZN2bn17bg_blocks_manager19create_affine_tilesERKNS_20affine_bg_tiles_itemEb
                0x00000000      0x12c bn_bg_blocks_manager.o
 .text._ZN2bn19affine_bg_tiles_ptr6createERKNS_20affine_bg_tiles_itemE
                0x00000000       0x18 bn_bg_blocks_manager.o
 .text._ZNK2bn20affine_bg_tiles_item12create_tilesEv
                0x00000000       0x18 bn_bg_blocks_manager.o
 .text._ZN2bn17affine_bg_map_ptr9set_tilesERKNS_20affine_bg_tiles_itemE
                0x00000000       0xb0 bn_bg_blocks_manager.o
 .text._ZNK2bn20affine_bg_tiles_item16create_new_tilesEv
                0x00000000       0x18 bn_bg_blocks_manager.o
 .text._ZN2bn19affine_bg_tiles_ptr15create_optionalERKNS_20affine_bg_tiles_itemE
                0x00000000       0x24 bn_bg_blocks_manager.o
 .text._ZNK2bn20affine_bg_tiles_item21create_tiles_optionalEv
                0x00000000       0x24 bn_bg_blocks_manager.o
 .text._ZNK2bn20affine_bg_tiles_item25create_new_tiles_optionalEv
                0x00000000       0x24 bn_bg_blocks_manager.o
 .text._ZN3_bn6assert9show_argsIA26_cEEvPKcS4_S4_iRKT_
                0x00000000       0x48 bn_bg_blocks_manager.o
 .rodata._ZN2bn17bg_blocks_manager22set_affine_map_paletteEiONS_14bg_palette_ptrE.str1.4
                0x00000000       0x5b bn_bg_blocks_manager.o
 .text._ZN2bn17bg_blocks_manager22set_affine_map_paletteEiONS_14bg_palette_ptrE
                0x00000000       0x98 bn_bg_blocks_manager.o
 .text._ZN2bn17affine_bg_map_ptr11set_paletteERKNS_14bg_palette_ptrE
                0x00000000       0x24 bn_bg_blocks_manager.o
 .text._ZN2bn17affine_bg_map_ptr11set_paletteERKNS_15bg_palette_itemE
                0x00000000       0x24 bn_bg_blocks_manager.o
 .rodata._ZN2bn17bg_blocks_manager12_GLOBAL__N_121_find_affine_map_implERKNS_18affine_bg_map_itemEPKhRKNS_19affine_bg_tiles_ptrERKNS_14bg_palette_ptrE.str1.4
                0x00000000       0x16 bn_bg_blocks_manager.o
 .text._ZN2bn17bg_blocks_manager12_GLOBAL__N_121_find_affine_map_implERKNS_18affine_bg_map_itemEPKhRKNS_19affine_bg_tiles_ptrERKNS_14bg_palette_ptrE
                0x00000000      0x1f4 bn_bg_blocks_manager.o
 .text._ZN2bn17bg_blocks_manager15find_affine_mapERKNS_18affine_bg_map_itemEPKhRKNS_19affine_bg_tiles_ptrERKNS_14bg_palette_ptrE
                0x00000000        0xc bn_bg_blocks_manager.o
 .text._ZN2bn17affine_bg_map_ptr4findERKNS_18affine_bg_map_itemERKNS_19affine_bg_tiles_ptrERKNS_14bg_palette_ptrE
                0x00000000       0x24 bn_bg_blocks_manager.o
 .text._ZN2bn17affine_bg_map_ptr4findERKNS_18affine_bg_map_itemERKNS_19affine_bg_tiles_ptrERKNS_14bg_palette_ptrEi
                0x00000000       0x9c bn_bg_blocks_manager.o
 .text._ZNK2bn18affine_bg_map_item8find_mapERKNS_19affine_bg_tiles_ptrERKNS_14bg_palette_ptrE
                0x00000000       0x24 bn_bg_blocks_manager.o
 .text._ZNK2bn18affine_bg_map_item8find_mapERKNS_19affine_bg_tiles_ptrERKNS_14bg_palette_ptrEi
                0x00000000       0x9c bn_bg_blocks_manager.o
 .text._ZN2bn17affine_bg_map_ptr4findERKNS_14affine_bg_itemE
                0x00000000       0xcc bn_bg_blocks_manager.o
 .text._ZN2bn17affine_bg_map_ptr4findERKNS_14affine_bg_itemEi
                0x00000000      0x140 bn_bg_blocks_manager.o
 .text._ZN2bn17affine_bg_map_ptr11set_paletteEONS_14bg_palette_ptrE
                0x00000000       0x90 bn_bg_blocks_manager.o
 .text._ZN3_bn6assert9show_argsIJA51_ciA4_ciEEEvPKcS5_S5_iDpRKT_
                0x00000000       0x58 bn_bg_blocks_manager.o
 .text._ZN3_bn6assert9show_argsIJA53_ciA4_ciEEEvPKcS5_S5_iDpRKT_
                0x00000000       0x58 bn_bg_blocks_manager.o
 .text._ZN2bn17bg_blocks_manager17create_affine_mapERKNS_18affine_bg_map_itemEPKhONS_19affine_bg_tiles_ptrEONS_14bg_palette_ptrEb
                0x00000000      0x2d0 bn_bg_blocks_manager.o
 .text._ZN2bn17affine_bg_map_ptr6createERKNS_18affine_bg_map_itemENS_19affine_bg_tiles_ptrENS_14bg_palette_ptrE
                0x00000000       0x20 bn_bg_blocks_manager.o
 .text._ZNK2bn18affine_bg_map_item10create_mapENS_19affine_bg_tiles_ptrENS_14bg_palette_ptrE
                0x00000000       0x4c bn_bg_blocks_manager.o
 .text._ZN2bn17affine_bg_map_ptr6createERKNS_18affine_bg_map_itemENS_19affine_bg_tiles_ptrENS_14bg_palette_ptrEi
                0x00000000       0x94 bn_bg_blocks_manager.o
 .text._ZN2bn17affine_bg_map_ptr6createERKNS_14affine_bg_itemE
                0x00000000       0x64 bn_bg_blocks_manager.o
 .text._ZN2bn17affine_bg_map_ptr6createERKNS_14affine_bg_itemEi
                0x00000000       0xdc bn_bg_blocks_manager.o
 .text._ZN2bn17affine_bg_map_ptr15create_optionalERKNS_18affine_bg_map_itemENS_19affine_bg_tiles_ptrENS_14bg_palette_ptrE
                0x00000000       0x2c bn_bg_blocks_manager.o
 .text._ZN2bn17affine_bg_map_ptr15create_optionalERKNS_18affine_bg_map_itemENS_19affine_bg_tiles_ptrENS_14bg_palette_ptrEi
                0x00000000       0xa0 bn_bg_blocks_manager.o
 .text._ZN2bn17affine_bg_map_ptr15create_optionalERKNS_14affine_bg_itemE
                0x00000000       0xb4 bn_bg_blocks_manager.o
 .text._ZN2bn17affine_bg_map_ptr15create_optionalERKNS_14affine_bg_itemEi
                0x00000000      0x120 bn_bg_blocks_manager.o
 .text._ZNK2bn18affine_bg_map_item10create_mapENS_19affine_bg_tiles_ptrENS_14bg_palette_ptrEi
                0x00000000       0xc4 bn_bg_blocks_manager.o
 .text._ZNK2bn18affine_bg_map_item19create_map_optionalENS_19affine_bg_tiles_ptrENS_14bg_palette_ptrE
                0x00000000       0x58 bn_bg_blocks_manager.o
 .text._ZNK2bn18affine_bg_map_item19create_map_optionalENS_19affine_bg_tiles_ptrENS_14bg_palette_ptrEi
                0x00000000       0xd0 bn_bg_blocks_manager.o
 .rodata._ZN2bn17bg_blocks_manager21create_new_affine_mapERKNS_18affine_bg_map_itemEPKhONS_19affine_bg_tiles_ptrEONS_14bg_palette_ptrEb.str1.4
                0x00000000       0x39 bn_bg_blocks_manager.o
 .text._ZN2bn17bg_blocks_manager21create_new_affine_mapERKNS_18affine_bg_map_itemEPKhONS_19affine_bg_tiles_ptrEONS_14bg_palette_ptrEb
                0x00000000      0x2e0 bn_bg_blocks_manager.o
 .text._ZN2bn17affine_bg_map_ptr10create_newERKNS_18affine_bg_map_itemENS_19affine_bg_tiles_ptrENS_14bg_palette_ptrE
                0x00000000       0x20 bn_bg_blocks_manager.o
 .text._ZNK2bn18affine_bg_map_item14create_new_mapENS_19affine_bg_tiles_ptrENS_14bg_palette_ptrE
                0x00000000       0x4c bn_bg_blocks_manager.o
 .text._ZN2bn17affine_bg_map_ptr10create_newERKNS_18affine_bg_map_itemENS_19affine_bg_tiles_ptrENS_14bg_palette_ptrEi
                0x00000000       0x94 bn_bg_blocks_manager.o
 .text._ZN2bn17affine_bg_map_ptr10create_newERKNS_14affine_bg_itemE
                0x00000000       0x64 bn_bg_blocks_manager.o
 .text._ZN2bn17affine_bg_map_ptr10create_newERKNS_14affine_bg_itemEi
                0x00000000       0xdc bn_bg_blocks_manager.o
 .text._ZN2bn17affine_bg_map_ptr19create_new_optionalERKNS_18affine_bg_map_itemENS_19affine_bg_tiles_ptrENS_14bg_palette_ptrE
                0x00000000       0x2c bn_bg_blocks_manager.o
 .text._ZN2bn17affine_bg_map_ptr19create_new_optionalERKNS_18affine_bg_map_itemENS_19affine_bg_tiles_ptrENS_14bg_palette_ptrEi
                0x00000000       0xa0 bn_bg_blocks_manager.o
 .text._ZN2bn17affine_bg_map_ptr19create_new_optionalERKNS_14affine_bg_itemE
                0x00000000       0xb4 bn_bg_blocks_manager.o
 .text._ZN2bn17affine_bg_map_ptr19create_new_optionalERKNS_14affine_bg_itemEi
                0x00000000      0x120 bn_bg_blocks_manager.o
 .text._ZNK2bn18affine_bg_map_item14create_new_mapENS_19affine_bg_tiles_ptrENS_14bg_palette_ptrEi
                0x00000000       0xc4 bn_bg_blocks_manager.o
 .text._ZNK2bn18affine_bg_map_item23create_new_map_optionalENS_19affine_bg_tiles_ptrENS_14bg_palette_ptrE
                0x00000000       0x58 bn_bg_blocks_manager.o
 .text._ZNK2bn18affine_bg_map_item23create_new_map_optionalENS_19affine_bg_tiles_ptrENS_14bg_palette_ptrEi
                0x00000000       0xd0 bn_bg_blocks_manager.o
 .text._ZN2bn18regular_bg_map_ptr10create_newERKNS_19regular_bg_map_itemENS_20regular_bg_tiles_ptrENS_14bg_palette_ptrE
                0x00000000       0x20 bn_bg_blocks_manager.o
 .text._ZN2bn18regular_bg_map_ptr10create_newERKNS_19regular_bg_map_itemENS_20regular_bg_tiles_ptrENS_14bg_palette_ptrEi
                0x00000000       0x94 bn_bg_blocks_manager.o
 .text._ZN2bn18regular_bg_map_ptr10create_newERKNS_15regular_bg_itemEi
                0x00000000       0xdc bn_bg_blocks_manager.o
 .text._ZN2bn18regular_bg_map_ptr19create_new_optionalERKNS_19regular_bg_map_itemENS_20regular_bg_tiles_ptrENS_14bg_palette_ptrE
                0x00000000       0x2c bn_bg_blocks_manager.o
 .text._ZN2bn18regular_bg_map_ptr19create_new_optionalERKNS_19regular_bg_map_itemENS_20regular_bg_tiles_ptrENS_14bg_palette_ptrEi
                0x00000000       0xa0 bn_bg_blocks_manager.o
 .text._ZN2bn18regular_bg_map_ptr19create_new_optionalERKNS_15regular_bg_itemE
                0x00000000       0xb4 bn_bg_blocks_manager.o
 .text._ZN2bn18regular_bg_map_ptr19create_new_optionalERKNS_15regular_bg_itemEi
                0x00000000      0x120 bn_bg_blocks_manager.o
 .text._ZNK2bn19regular_bg_map_item14create_new_mapENS_20regular_bg_tiles_ptrENS_14bg_palette_ptrEi
                0x00000000       0xc4 bn_bg_blocks_manager.o
 .text._ZNK2bn19regular_bg_map_item23create_new_map_optionalENS_20regular_bg_tiles_ptrENS_14bg_palette_ptrE
                0x00000000       0x58 bn_bg_blocks_manager.o
 .text._ZNK2bn19regular_bg_map_item23create_new_map_optionalENS_20regular_bg_tiles_ptrENS_14bg_palette_ptrEi
                0x00000000       0xd0 bn_bg_blocks_manager.o
 .text._ZN3_bn6assert9show_argsIJA49_ciA17_ciA34_cN2bn11string_viewEEEEvPKcS8_S8_iDpRKT_
                0x00000000       0x74 bn_bg_blocks_manager.o
 .rodata._ZN2bn17bg_blocks_manager22allocate_regular_tilesEiNS_8bpp_modeEb.str1.4
                0x00000000       0x85 bn_bg_blocks_manager.o
 .text._ZN2bn17bg_blocks_manager22allocate_regular_tilesEiNS_8bpp_modeEb
                0x00000000      0x160 bn_bg_blocks_manager.o
 .text._ZN2bn20regular_bg_tiles_ptr8allocateEiNS_8bpp_modeE
                0x00000000       0x18 bn_bg_blocks_manager.o
 .text._ZN2bn20regular_bg_tiles_ptr17allocate_optionalEiNS_8bpp_modeE
                0x00000000       0x28 bn_bg_blocks_manager.o
 .text._ZN3_bn6assert9show_argsIJA48_ciA17_ciA34_cN2bn11string_viewEEEEvPKcS8_S8_iDpRKT_
                0x00000000       0x74 bn_bg_blocks_manager.o
 .rodata._ZN2bn17bg_blocks_manager21allocate_affine_tilesEib.str1.4
                0x00000000       0x80 bn_bg_blocks_manager.o
 .text._ZN2bn17bg_blocks_manager21allocate_affine_tilesEib
                0x00000000      0x120 bn_bg_blocks_manager.o
 .text._ZN2bn19affine_bg_tiles_ptr8allocateEi
                0x00000000       0x18 bn_bg_blocks_manager.o
 .text._ZN2bn19affine_bg_tiles_ptr17allocate_optionalEi
                0x00000000       0x24 bn_bg_blocks_manager.o
 .text._ZN3_bn6assert9show_argsIA20_ciEEvPKcS4_S4_iRKT_RKT0_
                0x00000000       0x54 bn_bg_blocks_manager.o
 .rodata._ZN2bn17bg_blocks_manager20allocate_regular_mapERKNS_4sizeEONS_20regular_bg_tiles_ptrEONS_14bg_palette_ptrEb.str1.4
                0x00000000       0xe4 bn_bg_blocks_manager.o
 .text._ZN2bn17bg_blocks_manager20allocate_regular_mapERKNS_4sizeEONS_20regular_bg_tiles_ptrEONS_14bg_palette_ptrEb
                0x00000000      0x2b8 bn_bg_blocks_manager.o
 .text._ZN2bn18regular_bg_map_ptr8allocateERKNS_4sizeENS_20regular_bg_tiles_ptrENS_14bg_palette_ptrE
                0x00000000       0x1c bn_bg_blocks_manager.o
 .text._ZN2bn18regular_bg_map_ptr17allocate_optionalERKNS_4sizeENS_20regular_bg_tiles_ptrENS_14bg_palette_ptrE
                0x00000000       0x28 bn_bg_blocks_manager.o
 .text._ZN3_bn6assert9show_argsIJA41_ciA4_ciEEEvPKcS5_S5_iDpRKT_
                0x00000000       0x58 bn_bg_blocks_manager.o
 .text._ZN3_bn6assert9show_argsIJA31_cA14_ciA15_ciA17_ciA34_cN2bn11string_viewEEEEvPKcSA_SA_iDpRKT_
                0x00000000       0x90 bn_bg_blocks_manager.o
 .rodata._ZN2bn17bg_blocks_manager19allocate_affine_mapERKNS_4sizeEONS_19affine_bg_tiles_ptrEONS_14bg_palette_ptrEb.str1.4
                0x00000000      0x113 bn_bg_blocks_manager.o
 .text._ZN2bn17bg_blocks_manager19allocate_affine_mapERKNS_4sizeEONS_19affine_bg_tiles_ptrEONS_14bg_palette_ptrEb
                0x00000000      0x1f4 bn_bg_blocks_manager.o
 .text._ZN2bn17affine_bg_map_ptr8allocateERKNS_4sizeENS_19affine_bg_tiles_ptrENS_14bg_palette_ptrE
                0x00000000       0x1c bn_bg_blocks_manager.o
 .text._ZN2bn17affine_bg_map_ptr17allocate_optionalERKNS_4sizeENS_19affine_bg_tiles_ptrENS_14bg_palette_ptrE
                0x00000000       0x28 bn_bg_blocks_manager.o
 .text._ZN3_bn6assert9show_argsIA14_cEEvPKcS4_S4_iRKT_
                0x00000000       0x48 bn_bg_blocks_manager.o
 .rodata._ZN2bn17bg_blocks_manager26affine_big_map_canvas_sizeEi.str1.4
                0x00000000       0x2a bn_bg_blocks_manager.o
 .text._ZN2bn17bg_blocks_manager26affine_big_map_canvas_sizeEi
                0x00000000       0x48 bn_bg_blocks_manager.o
 .text._ZNK2bn17affine_bg_map_ptr15big_canvas_sizeEv
                0x00000000       0x4c bn_bg_blocks_manager.o
 .text._ZN3_bn6assert9show_argsIJA46_ciA4_ciEEEvPKcS5_S5_iDpRKT_
                0x00000000       0x58 bn_bg_blocks_manager.o
 .text._ZN3_bn6assert9show_argsIA17_cEEvPKcS4_S4_iRKT_
                0x00000000       0x48 bn_bg_blocks_manager.o
 .rodata._ZN2bn17bg_blocks_manager6reloadEi.str1.4
                0x00000000       0x19 bn_bg_blocks_manager.o
 .text._ZN2bn17bg_blocks_manager6reloadEi
                0x00000000       0x54 bn_bg_blocks_manager.o
 .rodata._ZN2bn17bg_blocks_manager21set_regular_tiles_refEiRKNS_21regular_bg_tiles_itemE.str1.4
                0x00000000       0x46 bn_bg_blocks_manager.o
 .text._ZN2bn17bg_blocks_manager21set_regular_tiles_refEiRKNS_21regular_bg_tiles_itemE
                0x00000000       0xd8 bn_bg_blocks_manager.o
 .text._ZN2bn20regular_bg_tiles_ptr13set_tiles_refERKNS_21regular_bg_tiles_itemE
                0x00000000       0x14 bn_bg_blocks_manager.o
 .rodata._ZN2bn17bg_blocks_manager20set_affine_tiles_refEiRKNS_20affine_bg_tiles_itemE.str1.4
                0x00000000       0x15 bn_bg_blocks_manager.o
 .text._ZN2bn17bg_blocks_manager20set_affine_tiles_refEiRKNS_20affine_bg_tiles_itemE
                0x00000000       0xd8 bn_bg_blocks_manager.o
 .text._ZN2bn19affine_bg_tiles_ptr13set_tiles_refERKNS_20affine_bg_tiles_itemE
                0x00000000       0x14 bn_bg_blocks_manager.o
 .text._ZN2bn18regular_bg_map_ptr16reload_cells_refEv
                0x00000000       0x58 bn_bg_blocks_manager.o
 .text._ZN2bn20regular_bg_tiles_ptr16reload_tiles_refEv
                0x00000000       0x58 bn_bg_blocks_manager.o
 .text._ZN2bn17affine_bg_map_ptr16reload_cells_refEv
                0x00000000       0x58 bn_bg_blocks_manager.o
 .text._ZN2bn19affine_bg_tiles_ptr16reload_tiles_refEv
                0x00000000       0x58 bn_bg_blocks_manager.o
 .text._ZN3_bn6assert9show_argsIJA42_ciA4_ctEEEvPKcS5_S5_iDpRKT_
                0x00000000       0x58 bn_bg_blocks_manager.o
 .text._ZN3_bn6assert9show_argsIJA44_ciA4_ctEEEvPKcS5_S5_iDpRKT_
                0x00000000       0x58 bn_bg_blocks_manager.o
 .text._ZN3_bn6assert9show_argsIJA38_cbA4_cbEEEvPKcS5_S5_iDpRKT_
                0x00000000       0x7c bn_bg_blocks_manager.o
 .rodata._ZN2bn17bg_blocks_manager25set_regular_map_cells_refEiRKNS_19regular_bg_map_itemEPKt.str1.4
                0x00000000       0x9a bn_bg_blocks_manager.o
 .text._ZN2bn17bg_blocks_manager25set_regular_map_cells_refEiRKNS_19regular_bg_map_itemEPKt
                0x00000000      0x194 bn_bg_blocks_manager.o
 .text._ZN2bn18regular_bg_map_ptr13set_cells_refERKNS_19regular_bg_map_itemE
                0x00000000       0x14 bn_bg_blocks_manager.o
 .text._ZN2bn18regular_bg_map_ptr13set_cells_refERKNS_19regular_bg_map_itemEi
                0x00000000       0x8c bn_bg_blocks_manager.o
 .rodata._ZN2bn17bg_blocks_manager24set_affine_map_cells_refEiRKNS_18affine_bg_map_itemEPKh.str1.4
                0x00000000       0x19 bn_bg_blocks_manager.o
 .text._ZN2bn17bg_blocks_manager24set_affine_map_cells_refEiRKNS_18affine_bg_map_itemEPKh
                0x00000000      0x194 bn_bg_blocks_manager.o
 .text._ZN2bn17affine_bg_map_ptr13set_cells_refERKNS_18affine_bg_map_itemE
                0x00000000       0x14 bn_bg_blocks_manager.o
 .text._ZN2bn17affine_bg_map_ptr13set_cells_refERKNS_18affine_bg_map_itemEi
                0x00000000       0x8c bn_bg_blocks_manager.o
 .text._ZN2bn18regular_bg_map_ptr21set_tiles_and_paletteENS_20regular_bg_tiles_ptrENS_14bg_palette_ptrE
                0x00000000       0x14 bn_bg_blocks_manager.o
 .text._ZN2bn17bg_blocks_manager16find_regular_mapERKNS_19regular_bg_map_itemEPKtRKNS_20regular_bg_tiles_ptrERKNS_14bg_palette_ptrE
                0x00000000        0xc bn_bg_blocks_manager.o
 .text._ZN2bn18regular_bg_map_ptr4findERKNS_19regular_bg_map_itemERKNS_20regular_bg_tiles_ptrERKNS_14bg_palette_ptrE
                0x00000000       0x24 bn_bg_blocks_manager.o
 .text._ZN2bn18regular_bg_map_ptr4findERKNS_19regular_bg_map_itemERKNS_20regular_bg_tiles_ptrERKNS_14bg_palette_ptrEi
                0x00000000       0xa0 bn_bg_blocks_manager.o
 .text._ZN2bn18regular_bg_map_ptr6createERKNS_19regular_bg_map_itemENS_20regular_bg_tiles_ptrENS_14bg_palette_ptrE
                0x00000000       0x20 bn_bg_blocks_manager.o
 .text._ZNK2bn19regular_bg_map_item10create_mapENS_20regular_bg_tiles_ptrENS_14bg_palette_ptrE
                0x00000000       0x4c bn_bg_blocks_manager.o
 .text._ZN2bn18regular_bg_map_ptr6createERKNS_19regular_bg_map_itemENS_20regular_bg_tiles_ptrENS_14bg_palette_ptrEi
                0x00000000       0x94 bn_bg_blocks_manager.o
 .text._ZN2bn18regular_bg_map_ptr6createERKNS_15regular_bg_itemE
                0x00000000       0x64 bn_bg_blocks_manager.o
 .text._ZN2bn18regular_bg_map_ptr15create_optionalERKNS_19regular_bg_map_itemENS_20regular_bg_tiles_ptrENS_14bg_palette_ptrE
                0x00000000       0x2c bn_bg_blocks_manager.o
 .text._ZN2bn18regular_bg_map_ptr15create_optionalERKNS_19regular_bg_map_itemENS_20regular_bg_tiles_ptrENS_14bg_palette_ptrEi
                0x00000000       0xa0 bn_bg_blocks_manager.o
 .text._ZN2bn18regular_bg_map_ptr15create_optionalERKNS_15regular_bg_itemE
                0x00000000       0xb4 bn_bg_blocks_manager.o
 .text._ZN2bn18regular_bg_map_ptr15create_optionalERKNS_15regular_bg_itemEi
                0x00000000      0x120 bn_bg_blocks_manager.o
 .text._ZNK2bn19regular_bg_map_item10create_mapENS_20regular_bg_tiles_ptrENS_14bg_palette_ptrEi
                0x00000000       0xc4 bn_bg_blocks_manager.o
 .text._ZNK2bn19regular_bg_map_item19create_map_optionalENS_20regular_bg_tiles_ptrENS_14bg_palette_ptrE
                0x00000000       0x58 bn_bg_blocks_manager.o
 .text._ZNK2bn19regular_bg_map_item19create_map_optionalENS_20regular_bg_tiles_ptrENS_14bg_palette_ptrEi
                0x00000000       0xd0 bn_bg_blocks_manager.o
 .text._ZNK2bn19regular_bg_map_item8find_mapERKNS_20regular_bg_tiles_ptrERKNS_14bg_palette_ptrEi
                0x00000000       0xa0 bn_bg_blocks_manager.o
 .text._ZN2bn18regular_bg_map_ptr4findERKNS_15regular_bg_itemE
                0x00000000       0xcc bn_bg_blocks_manager.o
 .text._ZN2bn18regular_bg_map_ptr4findERKNS_15regular_bg_itemEi
                0x00000000      0x144 bn_bg_blocks_manager.o
 .text._ZN2bn17bg_blocks_manager16regular_map_vramEi
                0x00000000       0x4c bn_bg_blocks_manager.o
 .text._ZN2bn18regular_bg_map_ptr4vramEv
                0x00000000       0x18 bn_bg_blocks_manager.o
 .text._ZN2bn17bg_blocks_manager15affine_map_vramEi
                0x00000000       0x48 bn_bg_blocks_manager.o
 .text._ZN2bn17affine_bg_map_ptr4vramEv
                0x00000000       0x18 bn_bg_blocks_manager.o
 .text._ZN2bn17bg_blocks_manager21regular_map_cells_refEi
                0x00000000       0x3c bn_bg_blocks_manager.o
 .text._ZNK2bn18regular_bg_map_ptr9cells_refEv
                0x00000000       0x18 bn_bg_blocks_manager.o
 .text._ZN2bn17bg_blocks_manager20affine_map_cells_refEi
                0x00000000       0x3c bn_bg_blocks_manager.o
 .text._ZNK2bn17affine_bg_map_ptr9cells_refEv
                0x00000000       0x18 bn_bg_blocks_manager.o
 .text._ZN2bn17bg_blocks_manager10tiles_vramEi
                0x00000000       0x48 bn_bg_blocks_manager.o
 .text._ZN2bn20regular_bg_tiles_ptr4vramEv
                0x00000000       0x18 bn_bg_blocks_manager.o
 .text._ZN2bn19affine_bg_tiles_ptr4vramEv
                0x00000000       0x18 bn_bg_blocks_manager.o
 .text._ZN2bn17bg_blocks_manager9tiles_refEi
                0x00000000       0x3c bn_bg_blocks_manager.o
 .text._ZNK2bn20regular_bg_tiles_ptr9tiles_refEv
                0x00000000       0x3c bn_bg_blocks_manager.o
 .text._ZNK2bn19affine_bg_tiles_ptr9tiles_refEv
                0x00000000       0x3c bn_bg_blocks_manager.o
 .rodata._ZNK2bn20affine_bg_tiles_item10decompressENS_4spanINS_4tileEEE.str1.4
                0x00000000       0x7b bn_bg_blocks_manager.o
 .text._ZNK2bn20affine_bg_tiles_item10decompressENS_4spanINS_4tileEEE
                0x00000000      0x154 bn_bg_blocks_manager.o
 .rodata._ZNK2bn21regular_bg_tiles_item10decompressENS_4spanINS_4tileEEE.str1.4
                0x00000000       0x1f bn_bg_blocks_manager.o
 .text._ZNK2bn21regular_bg_tiles_item10decompressENS_4spanINS_4tileEEE
                0x00000000      0x154 bn_bg_blocks_manager.o
 .group         0x00000000        0xc bn_bgs_manager.o
 .group         0x00000000        0xc bn_bgs_manager.o
 .group         0x00000000        0xc bn_bgs_manager.o
 .group         0x00000000        0xc bn_bgs_manager.o
 .group         0x00000000        0xc bn_bgs_manager.o
 .group         0x00000000        0xc bn_bgs_manager.o
 .group         0x00000000        0xc bn_bgs_manager.o
 .group         0x00000000        0xc bn_bgs_manager.o
 .group         0x00000000        0xc bn_bgs_manager.o
 .group         0x00000000        0xc bn_bgs_manager.o
 .group         0x00000000        0xc bn_bgs_manager.o
 .group         0x00000000        0xc bn_bgs_manager.o
 .group         0x00000000        0xc bn_bgs_manager.o
 .group         0x00000000        0xc bn_bgs_manager.o
 .group         0x00000000        0xc bn_bgs_manager.o
 .group         0x00000000        0xc bn_bgs_manager.o
 .group         0x00000000        0xc bn_bgs_manager.o
 .group         0x00000000        0xc bn_bgs_manager.o
 .group         0x00000000        0xc bn_bgs_manager.o
 .group         0x00000000        0xc bn_bgs_manager.o
 .group         0x00000000        0xc bn_bgs_manager.o
 .group         0x00000000        0xc bn_bgs_manager.o
 .group         0x00000000        0xc bn_bgs_manager.o
 .group         0x00000000        0xc bn_bgs_manager.o
 .group         0x00000000        0xc bn_bgs_manager.o
 .text          0x00000000        0x0 bn_bgs_manager.o
 .data          0x00000000        0x0 bn_bgs_manager.o
 .bss           0x00000000        0x0 bn_bgs_manager.o
 .text._ZN2bn11bgs_manager12_GLOBAL__N_128_check_unique_affine_big_mapERNS1_9item_typeE
                0x00000000       0x68 bn_bgs_manager.o
 .text._ZN2bn3bgs16used_items_countEv
                0x00000000       0x10 bn_bgs_manager.o
 .text._ZN2bn3bgs21available_items_countEv
                0x00000000       0x14 bn_bgs_manager.o
 .text._ZN2bn13affine_bg_ptrC2ERKS0_
                0x00000000        0xc bn_bgs_manager.o
 .text._ZNK2bn13affine_bg_ptr3bigEv
                0x00000000        0xc bn_bgs_manager.o
 .text._ZNK2bn13affine_bg_ptr1xEv
                0x00000000        0x8 bn_bgs_manager.o
 .text._ZN2bn13affine_bg_ptr5set_xENS_7fixed_tILi12EEE
                0x00000000       0x84 bn_bgs_manager.o
 .text._ZNK2bn13affine_bg_ptr1yEv
                0x00000000        0x8 bn_bgs_manager.o
 .text._ZN2bn13affine_bg_ptr5set_yENS_7fixed_tILi12EEE
                0x00000000       0x84 bn_bgs_manager.o
 .text._ZNK2bn13affine_bg_ptr8positionEv
                0x00000000        0x4 bn_bgs_manager.o
 .text._ZNK2bn13affine_bg_ptr14rotation_angleEv
                0x00000000        0x8 bn_bgs_manager.o
 .text._ZNK2bn13affine_bg_ptr16horizontal_scaleEv
                0x00000000        0x8 bn_bgs_manager.o
 .text._ZNK2bn13affine_bg_ptr14vertical_scaleEv
                0x00000000        0x8 bn_bgs_manager.o
 .text._ZNK2bn13affine_bg_ptr16horizontal_shearEv
                0x00000000        0x8 bn_bgs_manager.o
 .text._ZN2bn13affine_bg_ptr20set_horizontal_shearENS_7fixed_tILi12EEE
                0x00000000       0x94 bn_bgs_manager.o
 .text._ZNK2bn13affine_bg_ptr14vertical_shearEv
                0x00000000        0x8 bn_bgs_manager.o
 .text._ZN2bn13affine_bg_ptr18set_vertical_shearENS_7fixed_tILi12EEE
                0x00000000       0x90 bn_bgs_manager.o
 .text._ZNK2bn13affine_bg_ptr15horizontal_flipEv
                0x00000000        0xc bn_bgs_manager.o
 .text._ZN2bn13affine_bg_ptr19set_horizontal_flipEb
                0x00000000       0xa0 bn_bgs_manager.o
 .text._ZNK2bn13affine_bg_ptr13vertical_flipEv
                0x00000000        0xc bn_bgs_manager.o
 .text._ZN2bn13affine_bg_ptr17set_vertical_flipEb
                0x00000000       0x9c bn_bgs_manager.o
 .text._ZNK2bn13affine_bg_ptr7pivot_xEv
                0x00000000        0x8 bn_bgs_manager.o
 .text._ZN2bn13affine_bg_ptr11set_pivot_xENS_7fixed_tILi12EEE
                0x00000000       0x50 bn_bgs_manager.o
 .text._ZNK2bn13affine_bg_ptr7pivot_yEv
                0x00000000        0x8 bn_bgs_manager.o
 .text._ZN2bn13affine_bg_ptr11set_pivot_yENS_7fixed_tILi12EEE
                0x00000000       0x50 bn_bgs_manager.o
 .text._ZNK2bn13affine_bg_ptr14pivot_positionEv
                0x00000000        0x8 bn_bgs_manager.o
 .text._ZN2bn13affine_bg_ptr18set_pivot_positionENS_7fixed_tILi12EEES2_
                0x00000000       0x74 bn_bgs_manager.o
 .text._ZN2bn13affine_bg_ptr18set_pivot_positionERKNS_13fixed_point_tILi12EEE
                0x00000000       0x80 bn_bgs_manager.o
 .text._ZNK2bn13affine_bg_ptr14mat_attributesEv
                0x00000000        0x8 bn_bgs_manager.o
 .text._ZNK2bn13affine_bg_ptr8priorityEv
                0x00000000        0x8 bn_bgs_manager.o
 .text._ZNK2bn13affine_bg_ptr7z_orderEv
                0x00000000       0x14 bn_bgs_manager.o
 .text._ZNK2bn13affine_bg_ptr16wrapping_enabledEv
                0x00000000        0xc bn_bgs_manager.o
 .text._ZN2bn13affine_bg_ptr20set_wrapping_enabledEb
                0x00000000       0x50 bn_bgs_manager.o
 .text._ZNK2bn13affine_bg_ptr14mosaic_enabledEv
                0x00000000        0xc bn_bgs_manager.o
 .text._ZN2bn13affine_bg_ptr18set_mosaic_enabledEb
                0x00000000       0x48 bn_bgs_manager.o
 .text._ZNK2bn13affine_bg_ptr20blending_top_enabledEv
                0x00000000        0xc bn_bgs_manager.o
 .text._ZN2bn13affine_bg_ptr24set_blending_top_enabledEb
                0x00000000       0x3c bn_bgs_manager.o
 .text._ZNK2bn13affine_bg_ptr23blending_bottom_enabledEv
                0x00000000        0xc bn_bgs_manager.o
 .text._ZN2bn13affine_bg_ptr27set_blending_bottom_enabledEb
                0x00000000       0x3c bn_bgs_manager.o
 .text._ZNK2bn13affine_bg_ptr7visibleEv
                0x00000000        0xc bn_bgs_manager.o
 .text._ZN2bn13affine_bg_ptr11set_visibleEb
                0x00000000       0x30 bn_bgs_manager.o
 .text._ZNK2bn13affine_bg_ptr17visible_in_windowERKNS_6windowE
                0x00000000       0x14 bn_bgs_manager.o
 .text._ZN2bn13affine_bg_ptr21set_visible_in_windowEbRNS_6windowE
                0x00000000       0x14 bn_bgs_manager.o
 .text._ZNK2bn13affine_bg_ptr6cameraEv
                0x00000000        0x8 bn_bgs_manager.o
 .text._ZNK2bn14affine_bg_item10decompressENS_4spanINS_4tileEEENS1_INS_5colorEEENS1_IhEE
                0x00000000       0x6c bn_bgs_manager.o
 .text._ZNK2bn14affine_bg_item8find_mapEv
                0x00000000       0x10 bn_bgs_manager.o
 .text._ZNK2bn14affine_bg_item8find_mapEi
                0x00000000       0x10 bn_bgs_manager.o
 .text._ZNK2bn14affine_bg_item10create_mapEv
                0x00000000       0x10 bn_bgs_manager.o
 .text._ZNK2bn14affine_bg_item10create_mapEi
                0x00000000       0x10 bn_bgs_manager.o
 .text._ZNK2bn14affine_bg_item14create_new_mapEv
                0x00000000       0x10 bn_bgs_manager.o
 .text._ZNK2bn14affine_bg_item14create_new_mapEi
                0x00000000       0x10 bn_bgs_manager.o
 .text._ZNK2bn14affine_bg_item19create_map_optionalEv
                0x00000000       0x10 bn_bgs_manager.o
 .text._ZNK2bn14affine_bg_item19create_map_optionalEi
                0x00000000       0x10 bn_bgs_manager.o
 .text._ZNK2bn14affine_bg_item23create_new_map_optionalEv
                0x00000000       0x10 bn_bgs_manager.o
 .text._ZNK2bn14affine_bg_item23create_new_map_optionalEi
                0x00000000       0x10 bn_bgs_manager.o
 .text._ZNK2bn17affine_bg_builder12map_optionalEv
                0x00000000       0x88 bn_bgs_manager.o
 .text._ZN2bn17affine_bg_builder20release_map_optionalEv
                0x00000000       0x9c bn_bgs_manager.o
 .text._ZN2bn14regular_bg_ptrC2ERKS0_
                0x00000000        0xc bn_bgs_manager.o
 .text._ZNK2bn14regular_bg_ptr3bigEv
                0x00000000        0xc bn_bgs_manager.o
 .text._ZNK2bn14regular_bg_ptr1xEv
                0x00000000        0x8 bn_bgs_manager.o
 .text._ZN2bn14regular_bg_ptr5set_xENS_7fixed_tILi12EEE
                0x00000000       0x60 bn_bgs_manager.o
 .text._ZNK2bn14regular_bg_ptr1yEv
                0x00000000        0x8 bn_bgs_manager.o
 .text._ZN2bn14regular_bg_ptr5set_yENS_7fixed_tILi12EEE
                0x00000000       0x60 bn_bgs_manager.o
 .text._ZNK2bn14regular_bg_ptr8positionEv
                0x00000000        0x4 bn_bgs_manager.o
 .text._ZN2bn14regular_bg_ptr12set_positionERKNS_13fixed_point_tILi12EEE
                0x00000000       0x78 bn_bgs_manager.o
 .text._ZNK2bn14regular_bg_ptr8priorityEv
                0x00000000        0x8 bn_bgs_manager.o
 .text._ZNK2bn14regular_bg_ptr7z_orderEv
                0x00000000       0x14 bn_bgs_manager.o
 .text._ZNK2bn14regular_bg_ptr14mosaic_enabledEv
                0x00000000        0xc bn_bgs_manager.o
 .text._ZN2bn14regular_bg_ptr18set_mosaic_enabledEb
                0x00000000       0x48 bn_bgs_manager.o
 .text._ZNK2bn14regular_bg_ptr20blending_top_enabledEv
                0x00000000        0xc bn_bgs_manager.o
 .text._ZNK2bn14regular_bg_ptr23blending_bottom_enabledEv
                0x00000000        0xc bn_bgs_manager.o
 .text._ZNK2bn14regular_bg_ptr17visible_in_windowERKNS_6windowE
                0x00000000       0x14 bn_bgs_manager.o
 .text._ZNK2bn14regular_bg_ptr6cameraEv
                0x00000000        0x8 bn_bgs_manager.o
 .text._ZNK2bn15regular_bg_item10decompressENS_4spanINS_4tileEEENS1_INS_5colorEEENS1_ItEE
                0x00000000       0x6c bn_bgs_manager.o
 .text._ZNK2bn15regular_bg_item8find_mapEv
                0x00000000       0x10 bn_bgs_manager.o
 .text._ZNK2bn15regular_bg_item8find_mapEi
                0x00000000       0x10 bn_bgs_manager.o
 .text._ZNK2bn15regular_bg_item10create_mapEv
                0x00000000       0x10 bn_bgs_manager.o
 .text._ZNK2bn15regular_bg_item10create_mapEi
                0x00000000       0x10 bn_bgs_manager.o
 .text._ZNK2bn15regular_bg_item14create_new_mapEv
                0x00000000       0x10 bn_bgs_manager.o
 .text._ZNK2bn15regular_bg_item14create_new_mapEi
                0x00000000       0x10 bn_bgs_manager.o
 .text._ZNK2bn15regular_bg_item19create_map_optionalEv
                0x00000000       0x10 bn_bgs_manager.o
 .text._ZNK2bn15regular_bg_item19create_map_optionalEi
                0x00000000       0x10 bn_bgs_manager.o
 .text._ZNK2bn15regular_bg_item23create_new_map_optionalEv
                0x00000000       0x10 bn_bgs_manager.o
 .text._ZNK2bn15regular_bg_item23create_new_map_optionalEi
                0x00000000       0x10 bn_bgs_manager.o
 .text._ZNK2bn18regular_bg_builder12map_optionalEv
                0x00000000       0x80 bn_bgs_manager.o
 .text._ZN2bn18regular_bg_builder20release_map_optionalEv
                0x00000000       0x98 bn_bgs_manager.o
 .text._ZN2bn11bgs_manager10used_countEv
                0x00000000       0x10 bn_bgs_manager.o
 .text._ZN2bn11bgs_manager15available_countEv
                0x00000000       0x14 bn_bgs_manager.o
 .text._ZN2bn11bgs_manager15increase_usagesEPv
                0x00000000        0x8 bn_bgs_manager.o
 .text._ZN2bn11bgs_manager3bigEPv
                0x00000000        0xc bn_bgs_manager.o
 .text._ZN2bn11bgs_manager18remove_regular_mapEPv
                0x00000000       0x1c bn_bgs_manager.o
 .text._ZN2bn11bgs_manager17remove_affine_mapEPv
                0x00000000       0x1c bn_bgs_manager.o
 .text._ZN2bn11bgs_manager8positionEPv
                0x00000000        0x4 bn_bgs_manager.o
 .text._ZN2bn11bgs_manager13set_regular_xEPvNS_7fixed_tILi12EEE
                0x00000000       0x5c bn_bgs_manager.o
 .text._ZN2bn11bgs_manager12set_affine_xEPvNS_7fixed_tILi12EEE
                0x00000000       0x80 bn_bgs_manager.o
 .text._ZN2bn11bgs_manager13set_regular_yEPvNS_7fixed_tILi12EEE
                0x00000000       0x5c bn_bgs_manager.o
 .text._ZN2bn11bgs_manager12set_affine_yEPvNS_7fixed_tILi12EEE
                0x00000000       0x84 bn_bgs_manager.o
 .text._ZN2bn11bgs_manager20set_regular_positionEPvRKNS_13fixed_point_tILi12EEE
                0x00000000       0x74 bn_bgs_manager.o
 .text._ZN2bn11bgs_manager19set_affine_positionEPvRKNS_13fixed_point_tILi12EEE
                0x00000000       0xe8 bn_bgs_manager.o
 .text._ZN2bn13affine_bg_ptr12set_positionENS_7fixed_tILi12EEES2_
                0x00000000       0x18 bn_bgs_manager.o
 .text._ZN2bn13affine_bg_ptr12set_positionERKNS_13fixed_point_tILi12EEE
                0x00000000       0x10 bn_bgs_manager.o
 .text._ZN2bn11bgs_manager14rotation_angleEPv
                0x00000000        0x4 bn_bgs_manager.o
 .text._ZN2bn11bgs_manager16horizontal_scaleEPv
                0x00000000        0x4 bn_bgs_manager.o
 .text._ZN2bn11bgs_manager14vertical_scaleEPv
                0x00000000        0x4 bn_bgs_manager.o
 .text._ZN2bn11bgs_manager16horizontal_shearEPv
                0x00000000        0x4 bn_bgs_manager.o
 .text._ZN2bn11bgs_manager20set_horizontal_shearEPvNS_7fixed_tILi12EEE
                0x00000000       0x90 bn_bgs_manager.o
 .text._ZN2bn11bgs_manager14vertical_shearEPv
                0x00000000        0x4 bn_bgs_manager.o
 .text._ZN2bn11bgs_manager18set_vertical_shearEPvNS_7fixed_tILi12EEE
                0x00000000       0x8c bn_bgs_manager.o
 .text._ZN2bn11bgs_manager9set_shearEPvNS_7fixed_tILi12EEE
                0x00000000      0x118 bn_bgs_manager.o
 .text._ZN2bn13affine_bg_ptr9set_shearENS_7fixed_tILi12EEE
                0x00000000       0x10 bn_bgs_manager.o
 .text._ZN2bn11bgs_manager9set_shearEPvNS_7fixed_tILi12EEES3_
                0x00000000      0x118 bn_bgs_manager.o
 .text._ZN2bn13affine_bg_ptr9set_shearENS_7fixed_tILi12EEES2_
                0x00000000       0x10 bn_bgs_manager.o
 .text._ZN2bn11bgs_manager15horizontal_flipEPv
                0x00000000        0x8 bn_bgs_manager.o
 .text._ZN2bn11bgs_manager19set_horizontal_flipEPvb
                0x00000000       0x9c bn_bgs_manager.o
 .text._ZN2bn11bgs_manager13vertical_flipEPv
                0x00000000        0x8 bn_bgs_manager.o
 .text._ZN2bn11bgs_manager17set_vertical_flipEPvb
                0x00000000       0x9c bn_bgs_manager.o
 .text._ZN2bn11bgs_manager14pivot_positionEPv
                0x00000000        0x4 bn_bgs_manager.o
 .text._ZN2bn11bgs_manager11set_pivot_xEPvNS_7fixed_tILi12EEE
                0x00000000       0x4c bn_bgs_manager.o
 .text._ZN2bn11bgs_manager11set_pivot_yEPvNS_7fixed_tILi12EEE
                0x00000000       0x4c bn_bgs_manager.o
 .text._ZN2bn11bgs_manager18set_pivot_positionEPvRKNS_13fixed_point_tILi12EEE
                0x00000000       0x7c bn_bgs_manager.o
 .text._ZN2bn11bgs_manager18set_mat_attributesEPvRKNS_21affine_mat_attributesE
                0x00000000       0xf0 bn_bgs_manager.o
 .text._ZN2bn13affine_bg_ptr18set_mat_attributesERKNS_21affine_mat_attributesE
                0x00000000       0x10 bn_bgs_manager.o
 .text._ZN2bn11bgs_manager8priorityEPv
                0x00000000        0x8 bn_bgs_manager.o
 .text._ZN2bn11bgs_manager7z_orderEPv
                0x00000000       0x10 bn_bgs_manager.o
 .text._ZN2bn11bgs_manager9put_aboveEPv
                0x00000000       0x68 bn_bgs_manager.o
 .text._ZN2bn13affine_bg_ptr9put_aboveEv
                0x00000000       0x10 bn_bgs_manager.o
 .text._ZN2bn14regular_bg_ptr9put_aboveEv
                0x00000000       0x10 bn_bgs_manager.o
 .text._ZN2bn13affine_bg_ptr9put_belowEv
                0x00000000       0x10 bn_bgs_manager.o
 .text._ZN2bn11bgs_manager16wrapping_enabledEPv
                0x00000000        0xc bn_bgs_manager.o
 .text._ZN2bn11bgs_manager20set_wrapping_enabledEPvb
                0x00000000       0x4c bn_bgs_manager.o
 .text._ZN2bn11bgs_manager14mosaic_enabledEPv
                0x00000000        0xc bn_bgs_manager.o
 .text._ZN2bn11bgs_manager18set_mosaic_enabledEPvb
                0x00000000       0x44 bn_bgs_manager.o
 .text._ZN2bn11bgs_manager20blending_top_enabledEPv
                0x00000000        0xc bn_bgs_manager.o
 .text._ZN2bn11bgs_manager24set_blending_top_enabledEPvb
                0x00000000       0x38 bn_bgs_manager.o
 .text._ZN2bn11bgs_manager23blending_bottom_enabledEPv
                0x00000000        0xc bn_bgs_manager.o
 .text._ZN2bn11bgs_manager27set_blending_bottom_enabledEPvb
                0x00000000       0x3c bn_bgs_manager.o
 .text._ZN2bn11bgs_manager7visibleEPv
                0x00000000        0xc bn_bgs_manager.o
 .text._ZN2bn11bgs_manager11set_visibleEPvb
                0x00000000       0x30 bn_bgs_manager.o
 .text._ZN2bn11bgs_manager14show_in_windowEPvi
                0x00000000        0x8 bn_bgs_manager.o
 .text._ZN2bn11bgs_manager22set_show_all_in_windowEib
                0x00000000       0x44 bn_bgs_manager.o
 .text._ZN2bn11bgs_manager6cameraEPv
                0x00000000        0x4 bn_bgs_manager.o
 .text._ZN2bn11bgs_manager10set_cameraEPvONS_10camera_ptrE
                0x00000000      0x17c bn_bgs_manager.o
 .text._ZN2bn13affine_bg_ptr10set_cameraERKNS_10camera_ptrE
                0x00000000       0x24 bn_bgs_manager.o
 .text._ZN2bn13affine_bg_ptr10set_cameraEONS_10camera_ptrE
                0x00000000       0x10 bn_bgs_manager.o
 .text._ZN2bn14regular_bg_ptr10set_cameraERKNS_10camera_ptrE
                0x00000000       0x24 bn_bgs_manager.o
 .text._ZN2bn14regular_bg_ptr10set_cameraEONS_10camera_ptrE
                0x00000000       0x10 bn_bgs_manager.o
 .text._ZN2bn11bgs_manager13remove_cameraEPv
                0x00000000      0x10c bn_bgs_manager.o
 .text._ZN2bn13affine_bg_ptr10set_cameraERKNS_8optionalINS_10camera_ptrEEE
                0x00000000       0x30 bn_bgs_manager.o
 .text._ZN2bn13affine_bg_ptr10set_cameraEONS_8optionalINS_10camera_ptrEEE
                0x00000000       0x1c bn_bgs_manager.o
 .text._ZN2bn13affine_bg_ptr13remove_cameraEv
                0x00000000       0x10 bn_bgs_manager.o
 .text._ZN2bn14regular_bg_ptr10set_cameraERKNS_8optionalINS_10camera_ptrEEE
                0x00000000       0x30 bn_bgs_manager.o
 .text._ZN2bn14regular_bg_ptr10set_cameraEONS_8optionalINS_10camera_ptrEEE
                0x00000000       0x1c bn_bgs_manager.o
 .text._ZN2bn14regular_bg_ptr13remove_cameraEv
                0x00000000       0x10 bn_bgs_manager.o
 .text._ZN2bn11bgs_manager27update_affine_map_tiles_cbbEii
                0x00000000       0xa8 bn_bgs_manager.o
 .text._ZN2bn11bgs_manager6reloadEv
                0x00000000       0x14 bn_bgs_manager.o
 .text._ZN3_bn6assert9show_argsIA18_ciEEvPKcS4_S4_iRKT_RKT0_
                0x00000000       0x54 bn_bgs_manager.o
 .rodata._ZN2bn17affine_bg_builder11set_z_orderEi.str1.4
                0x00000000       0x7a bn_bgs_manager.o
 .text._ZN2bn17affine_bg_builder11set_z_orderEi
                0x00000000       0x48 bn_bgs_manager.o
 .rodata._ZN2bn18regular_bg_builder11set_z_orderEi.str1.4
                0x00000000       0x1c bn_bgs_manager.o
 .text._ZN2bn18regular_bg_builder11set_z_orderEi
                0x00000000       0x48 bn_bgs_manager.o
 .text._ZN3_bn6assert9show_argsIA16_ciEEvPKcS4_S4_iRKT_RKT0_
                0x00000000       0x54 bn_bgs_manager.o
 .text._ZN2bn11bgs_manager10dimensionsEPv
                0x00000000       0x64 bn_bgs_manager.o
 .text._ZNK2bn13affine_bg_ptr10dimensionsEv
                0x00000000       0x64 bn_bgs_manager.o
 .text._ZNK2bn14regular_bg_ptr10dimensionsEv
                0x00000000       0x64 bn_bgs_manager.o
 .text._ZN3_bn6assert9show_argsIA15_ciEEvPKcS4_S4_iRKT_RKT0_
                0x00000000       0x54 bn_bgs_manager.o
 .rodata._ZNK2bn14affine_bg_item10decompressENS_4spanINS_4tileEEENS1_INS_5colorEEERhRKNS_4sizeE.str1.4
                0x00000000       0x33 bn_bgs_manager.o
 .text._ZNK2bn14affine_bg_item10decompressENS_4spanINS_4tileEEENS1_INS_5colorEEERhRKNS_4sizeE
                0x00000000       0x70 bn_bgs_manager.o
 .text._ZNK2bn15regular_bg_item10decompressENS_4spanINS_4tileEEENS1_INS_5colorEEERtRKNS_4sizeE
                0x00000000       0x74 bn_bgs_manager.o
 .text._ZN3_bn6assert9show_argsIA33_cEEvPKcS4_S4_iRKT_
                0x00000000       0x48 bn_bgs_manager.o
 .text._ZN3_bn6assert9show_argsIJA20_ciA4_ciEEEvPKcS5_S5_iDpRKT_
                0x00000000       0x64 bn_bgs_manager.o
 .rodata._ZN2bn17affine_bg_builderC2ERKNS_14affine_bg_itemEi.str1.4
                0x00000000       0x68 bn_bgs_manager.o
 .text._ZN2bn17affine_bg_builderC2ERKNS_14affine_bg_itemEi
                0x00000000       0xb8 bn_bgs_manager.o
 .rodata._ZN2bn18regular_bg_builderC2ERKNS_15regular_bg_itemEi.str1.4
                0x00000000       0x13 bn_bgs_manager.o
 .text._ZN2bn18regular_bg_builderC2ERKNS_15regular_bg_itemEi
                0x00000000       0x80 bn_bgs_manager.o
 .text._ZN3_bn6assert9show_argsIA19_ciEEvPKcS4_S4_iRKT_RKT0_
                0x00000000       0x54 bn_bgs_manager.o
 .rodata._ZN2bn17affine_bg_builder12set_priorityEi.str1.4
                0x00000000       0x57 bn_bgs_manager.o
 .text._ZN2bn17affine_bg_builder12set_priorityEi
                0x00000000       0x38 bn_bgs_manager.o
 .rodata._ZN2bn20affine_bg_attributesC2ERKNS_17affine_bg_map_ptrEibb.str1.4
                0x00000000       0x36 bn_bgs_manager.o
 .text._ZN2bn20affine_bg_attributesC2ERKNS_17affine_bg_map_ptrEibb
                0x00000000       0x4c bn_bgs_manager.o
 .text._ZN2bn20affine_bg_attributesC2EONS_17affine_bg_map_ptrEibb
                0x00000000       0x4c bn_bgs_manager.o
 .text._ZN2bn20affine_bg_attributes12set_priorityEi
                0x00000000       0x38 bn_bgs_manager.o
 .text._ZN2bn18regular_bg_builder12set_priorityEi
                0x00000000       0x38 bn_bgs_manager.o
 .rodata._ZN2bn21regular_bg_attributesC2ERKNS_18regular_bg_map_ptrEib.str1.4
                0x00000000       0x37 bn_bgs_manager.o
 .text._ZN2bn21regular_bg_attributesC2ERKNS_18regular_bg_map_ptrEib
                0x00000000       0x48 bn_bgs_manager.o
 .text._ZN2bn21regular_bg_attributesC2EONS_18regular_bg_map_ptrEib
                0x00000000       0x48 bn_bgs_manager.o
 .text._ZN2bn21regular_bg_attributes12set_priorityEi
                0x00000000       0x38 bn_bgs_manager.o
 .text._ZN3_bn6assert9show_argsIA45_cEEvPKcS4_S4_iRKT_
                0x00000000       0x48 bn_bgs_manager.o
 .text._ZN3_bn6assert9show_argsIA24_cEEvPKcS4_S4_iRKT_
                0x00000000       0x48 bn_bgs_manager.o
 .text._ZN3_bn6assert9show_argsIA31_cEEvPKcS4_S4_iRKT_
                0x00000000       0x48 bn_bgs_manager.o
 .text._ZN2bn11bgs_manager15rebuild_handlesEv
                0x00000000       0x1c bn_bgs_manager.o
 .text._ZNK2bn13affine_bg_ptr5hw_idEv
                0x00000000       0x3c bn_bgs_manager.o
 .text._ZNK2bn14regular_bg_ptr5hw_idEv
                0x00000000       0x3c bn_bgs_manager.o
 .text._ZN2bn13ostringstream6appendILi12EEEvNS_7fixed_tIXT_EEE
                0x00000000       0xa0 bn_bgs_manager.o
 .text._ZN3_bn6assert9show_argsIA16_cN2bn7fixed_tILi12EEEEEvPKcS7_S7_iRKT_RKT0_
                0x00000000       0x54 bn_bgs_manager.o
 .rodata._ZN2bn11bgs_manager9set_scaleEPvNS_7fixed_tILi12EEE.str1.4
                0x00000000       0x44 bn_bgs_manager.o
 .text._ZN2bn11bgs_manager9set_scaleEPvNS_7fixed_tILi12EEE
                0x00000000      0x194 bn_bgs_manager.o
 .text._ZN2bn13affine_bg_ptr9set_scaleENS_7fixed_tILi12EEE
                0x00000000       0x10 bn_bgs_manager.o
 .text._ZN3_bn6assert9show_argsIA38_cN2bn7fixed_tILi12EEEEEvPKcS7_S7_iRKT_RKT0_
                0x00000000       0x54 bn_bgs_manager.o
 .rodata._ZN2bn11bgs_manager18set_rotation_angleEPvNS_7fixed_tILi12EEE.str1.4
                0x00000000       0x76 bn_bgs_manager.o
 .text._ZN2bn11bgs_manager18set_rotation_angleEPvNS_7fixed_tILi12EEE
                0x00000000      0x19c bn_bgs_manager.o
 .text._ZN2bn13affine_bg_ptr18set_rotation_angleENS_7fixed_tILi12EEE
                0x00000000       0x10 bn_bgs_manager.o
 .text._ZN3_bn6assert9show_argsIA27_cN2bn7fixed_tILi12EEEEEvPKcS7_S7_iRKT_RKT0_
                0x00000000       0x54 bn_bgs_manager.o
 .rodata._ZN2bn11bgs_manager20set_horizontal_scaleEPvNS_7fixed_tILi12EEE.str1.4
                0x00000000       0x4b bn_bgs_manager.o
 .text._ZN2bn11bgs_manager20set_horizontal_scaleEPvNS_7fixed_tILi12EEE
                0x00000000      0x104 bn_bgs_manager.o
 .text._ZN2bn13affine_bg_ptr20set_horizontal_scaleENS_7fixed_tILi12EEE
                0x00000000       0x10 bn_bgs_manager.o
 .text._ZN3_bn6assert9show_argsIA25_cN2bn7fixed_tILi12EEEEEvPKcS7_S7_iRKT_RKT0_
                0x00000000       0x54 bn_bgs_manager.o
 .rodata._ZN2bn11bgs_manager18set_vertical_scaleEPvNS_7fixed_tILi12EEE.str1.4
                0x00000000       0x41 bn_bgs_manager.o
 .text._ZN2bn11bgs_manager18set_vertical_scaleEPvNS_7fixed_tILi12EEE
                0x00000000      0x100 bn_bgs_manager.o
 .text._ZN2bn13affine_bg_ptr18set_vertical_scaleENS_7fixed_tILi12EEE
                0x00000000       0x10 bn_bgs_manager.o
 .text._ZN2bn11bgs_manager9set_scaleEPvNS_7fixed_tILi12EEES3_
                0x00000000      0x208 bn_bgs_manager.o
 .text._ZN2bn13affine_bg_ptr9set_scaleENS_7fixed_tILi12EEES2_
                0x00000000       0x10 bn_bgs_manager.o
 .text._ZN3_bn6assert9show_argsIA22_cEEvPKcS4_S4_iRKT_
                0x00000000       0x48 bn_bgs_manager.o
 .text._ZN2bn11bgs_manager15set_regular_mapEPvRKNS_18regular_bg_map_ptrE
                0x00000000       0xb8 bn_bgs_manager.o
 .text._ZN2bn14regular_bg_ptr7set_mapERKNS_18regular_bg_map_ptrE
                0x00000000       0x10 bn_bgs_manager.o
 .text._ZN2bn14regular_bg_ptr7set_mapEONS_18regular_bg_map_ptrE
                0x00000000       0x10 bn_bgs_manager.o
 .text._ZN2bn17affine_bg_builder11release_mapEv
                0x00000000       0x80 bn_bgs_manager.o
 .text._ZNK2bn13affine_bg_ptr3mapEv
                0x00000000       0x38 bn_bgs_manager.o
 .text._ZNK2bn14regular_bg_ptr3mapEv
                0x00000000       0x38 bn_bgs_manager.o
 .text._ZNK2bn13affine_bg_ptr5tilesEv
                0x00000000       0x3c bn_bgs_manager.o
 .text._ZNK2bn13affine_bg_ptr7paletteEv
                0x00000000       0x3c bn_bgs_manager.o
 .text._ZNK2bn14regular_bg_ptr5tilesEv
                0x00000000       0x3c bn_bgs_manager.o
 .text._ZNK2bn14regular_bg_ptr7paletteEv
                0x00000000       0x3c bn_bgs_manager.o
 .text._ZN2bn13affine_bg_ptr9set_tilesERKNS_19affine_bg_tiles_ptrE
                0x00000000       0x50 bn_bgs_manager.o
 .text._ZN2bn13affine_bg_ptr9set_tilesEONS_19affine_bg_tiles_ptrE
                0x00000000       0x50 bn_bgs_manager.o
 .text._ZN2bn13affine_bg_ptr9set_tilesERKNS_20affine_bg_tiles_itemE
                0x00000000       0x50 bn_bgs_manager.o
 .text._ZN2bn13affine_bg_ptr11set_paletteERKNS_14bg_palette_ptrE
                0x00000000       0x50 bn_bgs_manager.o
 .text._ZN2bn13affine_bg_ptr11set_paletteEONS_14bg_palette_ptrE
                0x00000000       0x50 bn_bgs_manager.o
 .text._ZN2bn13affine_bg_ptr11set_paletteERKNS_15bg_palette_itemE
                0x00000000       0x50 bn_bgs_manager.o
 .text._ZN2bn14regular_bg_ptr9set_tilesERKNS_20regular_bg_tiles_ptrE
                0x00000000       0x50 bn_bgs_manager.o
 .text._ZN2bn14regular_bg_ptr9set_tilesEONS_20regular_bg_tiles_ptrE
                0x00000000       0x50 bn_bgs_manager.o
 .text._ZN2bn14regular_bg_ptr9set_tilesERKNS_21regular_bg_tiles_itemE
                0x00000000       0x50 bn_bgs_manager.o
 .text._ZN2bn14regular_bg_ptr11set_paletteERKNS_14bg_palette_ptrE
                0x00000000       0x50 bn_bgs_manager.o
 .text._ZN2bn14regular_bg_ptr11set_paletteEONS_14bg_palette_ptrE
                0x00000000       0x50 bn_bgs_manager.o
 .text._ZN2bn14regular_bg_ptr11set_paletteERKNS_15bg_palette_itemE
                0x00000000       0x50 bn_bgs_manager.o
 .text._ZN2bn14regular_bg_ptr21set_tiles_and_paletteERKNS_21regular_bg_tiles_itemERKNS_15bg_palette_itemE
                0x00000000       0x54 bn_bgs_manager.o
 .text._ZN2bn11bgs_manager18regular_attributesEPv
                0x00000000       0x7c bn_bgs_manager.o
 .text._ZNK2bn14regular_bg_ptr10attributesEv
                0x00000000       0x80 bn_bgs_manager.o
 .text._ZNK2bn13affine_bg_ptr10attributesEv
                0x00000000       0x84 bn_bgs_manager.o
 .text._ZN2bn11bgs_manager17affine_attributesEPv
                0x00000000       0x84 bn_bgs_manager.o
 .text._ZN2bn14regular_bg_ptr21set_tiles_and_paletteENS_20regular_bg_tiles_ptrENS_14bg_palette_ptrE
                0x00000000       0x74 bn_bgs_manager.o
 .text._ZNK2bn17affine_bg_builder3mapEv
                0x00000000       0x58 bn_bgs_manager.o
 .text._ZNK2bn18regular_bg_builder3mapEv
                0x00000000       0x50 bn_bgs_manager.o
 .text._ZN2bn14regular_bg_ptr7set_mapERKNS_19regular_bg_map_itemE
                0x00000000      0x11c bn_bgs_manager.o
 .text._ZN2bn14regular_bg_ptr7set_mapERKNS_19regular_bg_map_itemEi
                0x00000000      0x12c bn_bgs_manager.o
 .text._ZN2bn14regular_bg_ptr8set_itemERKNS_15regular_bg_itemEi
                0x00000000      0x150 bn_bgs_manager.o
 .text._ZN3_bn6assert9show_argsIA17_cN2bn7fixed_tILi12EEEEEvPKcS7_S7_iRKT_RKT0_
                0x00000000       0x54 bn_bgs_manager.o
 .text._ZN2bn11bgs_manager12_GLOBAL__N_19item_type17update_affine_mapEb
                0x00000000      0x278 bn_bgs_manager.o
 .rodata._ZN2bn11bgs_manager14set_affine_mapEPvRKNS_17affine_bg_map_ptrE.str1.4
                0x00000000       0x3d bn_bgs_manager.o
 .text._ZN2bn11bgs_manager14set_affine_mapEPvRKNS_17affine_bg_map_ptrE
                0x00000000       0xac bn_bgs_manager.o
 .text._ZN2bn13affine_bg_ptr7set_mapERKNS_17affine_bg_map_ptrE
                0x00000000       0x10 bn_bgs_manager.o
 .text._ZN2bn11bgs_manager14set_affine_mapEPvONS_17affine_bg_map_ptrE
                0x00000000       0xac bn_bgs_manager.o
 .text._ZN2bn13affine_bg_ptr7set_mapEONS_17affine_bg_map_ptrE
                0x00000000       0x10 bn_bgs_manager.o
 .text._ZN2bn13affine_bg_ptr7set_mapERKNS_18affine_bg_map_itemE
                0x00000000      0x11c bn_bgs_manager.o
 .text._ZN2bn13affine_bg_ptr7set_mapERKNS_18affine_bg_map_itemEi
                0x00000000      0x12c bn_bgs_manager.o
 .text._ZN2bn13affine_bg_ptr8set_itemERKNS_14affine_bg_itemE
                0x00000000      0x14c bn_bgs_manager.o
 .text._ZN2bn13affine_bg_ptr8set_itemERKNS_14affine_bg_itemEi
                0x00000000      0x158 bn_bgs_manager.o
 .text._ZN2bn11bgs_manager12_GLOBAL__N_19item_typeC2EONS_17affine_bg_builderEONS_17affine_bg_map_ptrE.isra.0
                0x00000000      0x210 bn_bgs_manager.o
 .text._ZN3_bn6assert9show_argsIA17_cEEvPKcS4_S4_iRKT_
                0x00000000       0x48 bn_bgs_manager.o
 .text._ZN3_bn6assert9show_argsIA15_cEEvPKcS4_S4_iRKT_
                0x00000000       0x48 bn_bgs_manager.o
 .text._ZN2bn11bgs_manager15create_optionalEONS_18regular_bg_builderE
                0x00000000      0x1ec bn_bgs_manager.o
 .text._ZN2bn11bgs_manager6createEONS_17affine_bg_builderE
                0x00000000       0xc8 bn_bgs_manager.o
 .text._ZN2bn13affine_bg_ptr6createENS_7fixed_tILi12EEES2_RKNS_14affine_bg_itemE
                0x00000000       0xb8 bn_bgs_manager.o
 .text._ZN2bn13affine_bg_ptr6createERKNS_13fixed_point_tILi12EEERKNS_14affine_bg_itemE
                0x00000000       0xbc bn_bgs_manager.o
 .text._ZN2bn13affine_bg_ptr6createENS_7fixed_tILi12EEES2_NS_17affine_bg_map_ptrE
                0x00000000       0xa8 bn_bgs_manager.o
 .text._ZN2bn13affine_bg_ptr6createERKNS_13fixed_point_tILi12EEENS_17affine_bg_map_ptrE
                0x00000000       0xb4 bn_bgs_manager.o
 .text._ZN2bn13affine_bg_ptr6createERKNS_17affine_bg_builderE
                0x00000000       0xc0 bn_bgs_manager.o
 .text._ZNK2bn17affine_bg_builder5buildEv
                0x00000000       0x10 bn_bgs_manager.o
 .text._ZN2bn13affine_bg_ptr6createEONS_17affine_bg_builderE
                0x00000000       0x14 bn_bgs_manager.o
 .text._ZN2bn17affine_bg_builder13release_buildEv
                0x00000000       0x14 bn_bgs_manager.o
 .text._ZN2bn13affine_bg_ptr6createENS_7fixed_tILi12EEES2_RKNS_14affine_bg_itemEi
                0x00000000      0x10c bn_bgs_manager.o
 .text._ZN2bn13affine_bg_ptr6createERKNS_13fixed_point_tILi12EEERKNS_14affine_bg_itemEi
                0x00000000      0x104 bn_bgs_manager.o
 .text._ZNK2bn14affine_bg_item9create_bgENS_7fixed_tILi12EEES2_i
                0x00000000      0x10c bn_bgs_manager.o
 .text._ZNK2bn14affine_bg_item9create_bgENS_7fixed_tILi12EEES2_
                0x00000000       0xb8 bn_bgs_manager.o
 .text._ZNK2bn14affine_bg_item9create_bgERKNS_13fixed_point_tILi12EEEi
                0x00000000      0x104 bn_bgs_manager.o
 .text._ZNK2bn14affine_bg_item9create_bgERKNS_13fixed_point_tILi12EEE
                0x00000000       0xbc bn_bgs_manager.o
 .text._ZN2bn11bgs_manager15create_optionalEONS_17affine_bg_builderE
                0x00000000       0xc4 bn_bgs_manager.o
 .text._ZN2bn14regular_bg_ptr6createENS_7fixed_tILi12EEES2_RKNS_15regular_bg_itemE
                0x00000000       0x78 bn_bgs_manager.o
 .text._ZN2bn14regular_bg_ptr6createERKNS_13fixed_point_tILi12EEERKNS_15regular_bg_itemE
                0x00000000       0x74 bn_bgs_manager.o
 .text._ZN2bn14regular_bg_ptr6createENS_7fixed_tILi12EEES2_NS_18regular_bg_map_ptrE
                0x00000000       0x74 bn_bgs_manager.o
 .text._ZN2bn14regular_bg_ptr6createERKNS_13fixed_point_tILi12EEENS_18regular_bg_map_ptrE
                0x00000000       0x80 bn_bgs_manager.o
 .text._ZN2bn14regular_bg_ptr6createERKNS_18regular_bg_builderE
                0x00000000       0xa0 bn_bgs_manager.o
 .text._ZNK2bn18regular_bg_builder5buildEv
                0x00000000       0x10 bn_bgs_manager.o
 .text._ZN2bn14regular_bg_ptr6createEONS_18regular_bg_builderE
                0x00000000       0x14 bn_bgs_manager.o
 .text._ZN2bn18regular_bg_builder13release_buildEv
                0x00000000       0x14 bn_bgs_manager.o
 .text._ZN2bn14regular_bg_ptr6createENS_7fixed_tILi12EEES2_RKNS_15regular_bg_itemEi
                0x00000000       0xd0 bn_bgs_manager.o
 .text._ZN2bn14regular_bg_ptr6createERKNS_13fixed_point_tILi12EEERKNS_15regular_bg_itemEi
                0x00000000       0xc8 bn_bgs_manager.o
 .text._ZNK2bn15regular_bg_item9create_bgENS_7fixed_tILi12EEES2_i
                0x00000000       0xd0 bn_bgs_manager.o
 .text._ZNK2bn15regular_bg_item9create_bgERKNS_13fixed_point_tILi12EEEi
                0x00000000       0xc8 bn_bgs_manager.o
 .text._ZNK2bn15regular_bg_item9create_bgERKNS_13fixed_point_tILi12EEE
                0x00000000       0x74 bn_bgs_manager.o
 .text._ZN3_bn6assert9show_argsIA14_cEEvPKcS4_S4_iRKT_
                0x00000000       0x48 bn_bgs_manager.o
 .text._ZN3_bn6assert9show_argsIJA23_ciA4_ciEEEvPKcS5_S5_iDpRKT_
                0x00000000       0x64 bn_bgs_manager.o
 .rodata._ZN2bn5eraseIPNS_11bgs_manager12_GLOBAL__N_19item_typeEEENS_7ivectorIT_E9size_typeERS7_RKS6_.constprop.0.isra.0.str1.4
                0x00000000       0x6f bn_bgs_manager.o
 .text._ZN2bn5eraseIPNS_11bgs_manager12_GLOBAL__N_19item_typeEEENS_7ivectorIT_E9size_typeERS7_RKS6_.constprop.0.isra.0
                0x00000000      0x13c bn_bgs_manager.o
 .rodata._ZN2bn11bgs_manager15decrease_usagesEPv.str1.4
                0x00000000       0x29 bn_bgs_manager.o
 .text._ZN2bn11bgs_manager15decrease_usagesEPv
                0x00000000       0xa8 bn_bgs_manager.o
 .text._ZN2bn13affine_bg_ptraSERKS0_
                0x00000000       0x28 bn_bgs_manager.o
 .text._ZN2bn13affine_bg_ptrD2Ev
                0x00000000       0x18 bn_bgs_manager.o
 .text._ZN2bn13affine_bg_ptr15create_optionalENS_7fixed_tILi12EEES2_RKNS_14affine_bg_itemE
                0x00000000       0xec bn_bgs_manager.o
 .text._ZN2bn13affine_bg_ptr15create_optionalENS_7fixed_tILi12EEES2_RKNS_14affine_bg_itemEi
                0x00000000      0x13c bn_bgs_manager.o
 .text._ZNK2bn14affine_bg_item18create_bg_optionalENS_7fixed_tILi12EEES2_i
                0x00000000       0x24 bn_bgs_manager.o
 .text._ZN2bn13affine_bg_ptr15create_optionalERKNS_13fixed_point_tILi12EEERKNS_14affine_bg_itemE
                0x00000000       0xec bn_bgs_manager.o
 .text._ZNK2bn14affine_bg_item18create_bg_optionalERKNS_13fixed_point_tILi12EEE
                0x00000000       0x18 bn_bgs_manager.o
 .text._ZN2bn13affine_bg_ptr15create_optionalERKNS_13fixed_point_tILi12EEERKNS_14affine_bg_itemEi
                0x00000000      0x140 bn_bgs_manager.o
 .text._ZNK2bn14affine_bg_item18create_bg_optionalERKNS_13fixed_point_tILi12EEEi
                0x00000000       0x18 bn_bgs_manager.o
 .text._ZN2bn13affine_bg_ptr15create_optionalENS_7fixed_tILi12EEES2_NS_17affine_bg_map_ptrE
                0x00000000       0xe4 bn_bgs_manager.o
 .text._ZN2bn13affine_bg_ptr15create_optionalERKNS_13fixed_point_tILi12EEENS_17affine_bg_map_ptrE
                0x00000000       0xe4 bn_bgs_manager.o
 .text._ZN2bn13affine_bg_ptr15create_optionalERKNS_17affine_bg_builderE
                0x00000000       0xe8 bn_bgs_manager.o
 .text._ZNK2bn17affine_bg_builder14build_optionalEv
                0x00000000       0x10 bn_bgs_manager.o
 .text._ZN2bn13affine_bg_ptr15create_optionalEONS_17affine_bg_builderE
                0x00000000       0x3c bn_bgs_manager.o
 .text._ZN2bn14regular_bg_ptraSERKS0_
                0x00000000       0x28 bn_bgs_manager.o
 .text._ZN2bn14regular_bg_ptrD2Ev
                0x00000000       0x18 bn_bgs_manager.o
 .text._ZN2bn14regular_bg_ptr15create_optionalENS_7fixed_tILi12EEES2_RKNS_15regular_bg_itemE
                0x00000000       0xb0 bn_bgs_manager.o
 .text._ZN2bn14regular_bg_ptr15create_optionalENS_7fixed_tILi12EEES2_RKNS_15regular_bg_itemEi
                0x00000000      0x108 bn_bgs_manager.o
 .text._ZNK2bn15regular_bg_item18create_bg_optionalENS_7fixed_tILi12EEES2_i
                0x00000000       0x24 bn_bgs_manager.o
 .text._ZN2bn14regular_bg_ptr15create_optionalERKNS_13fixed_point_tILi12EEERKNS_15regular_bg_itemE
                0x00000000       0xa4 bn_bgs_manager.o
 .text._ZNK2bn15regular_bg_item18create_bg_optionalERKNS_13fixed_point_tILi12EEE
                0x00000000       0x18 bn_bgs_manager.o
 .text._ZN2bn14regular_bg_ptr15create_optionalERKNS_13fixed_point_tILi12EEERKNS_15regular_bg_itemEi
                0x00000000      0x104 bn_bgs_manager.o
 .text._ZNK2bn15regular_bg_item18create_bg_optionalERKNS_13fixed_point_tILi12EEEi
                0x00000000       0x18 bn_bgs_manager.o
 .text._ZN2bn14regular_bg_ptr15create_optionalENS_7fixed_tILi12EEES2_NS_18regular_bg_map_ptrE
                0x00000000       0xac bn_bgs_manager.o
 .text._ZN2bn14regular_bg_ptr15create_optionalERKNS_13fixed_point_tILi12EEENS_18regular_bg_map_ptrE
                0x00000000       0xac bn_bgs_manager.o
 .text._ZN2bn14regular_bg_ptr15create_optionalERKNS_18regular_bg_builderE
                0x00000000       0xc8 bn_bgs_manager.o
 .text._ZNK2bn18regular_bg_builder14build_optionalEv
                0x00000000       0x10 bn_bgs_manager.o
 .text._ZN2bn14regular_bg_ptr15create_optionalEONS_18regular_bg_builderE
                0x00000000       0x3c bn_bgs_manager.o
 .text._ZN2bn17affine_bg_builder22release_build_optionalEv
                0x00000000       0x3c bn_bgs_manager.o
 .text._ZN2bn18regular_bg_builder22release_build_optionalEv
                0x00000000       0x3c bn_bgs_manager.o
 .text._ZNK2bn14affine_bg_item18create_bg_optionalENS_7fixed_tILi12EEES2_
                0x00000000       0xec bn_bgs_manager.o
 .text._ZNK2bn15regular_bg_item18create_bg_optionalENS_7fixed_tILi12EEES2_
                0x00000000       0xb0 bn_bgs_manager.o
 .text._ZN2bn11bgs_manager12set_priorityEPvi
                0x00000000       0x68 bn_bgs_manager.o
 .text._ZN2bn11bgs_manager22set_regular_attributesEPvRKNS_21regular_bg_attributesE
                0x00000000       0x60 bn_bgs_manager.o
 .text._ZN2bn11bgs_manager21set_affine_attributesEPvRKNS_20affine_bg_attributesE
                0x00000000       0xac bn_bgs_manager.o
 .text._ZN2bn13affine_bg_ptr14set_attributesERKNS_20affine_bg_attributesE
                0x00000000       0x10 bn_bgs_manager.o
 .text._ZN2bn14regular_bg_ptr14set_attributesERKNS_21regular_bg_attributesE
                0x00000000       0x64 bn_bgs_manager.o
 .text._ZN2bn11bgs_manager11set_z_orderEPvi
                0x00000000       0x70 bn_bgs_manager.o
 .text._ZN2bn13affine_bg_ptr11set_z_orderEi
                0x00000000       0x70 bn_bgs_manager.o
 .text._ZN2bn14regular_bg_ptr11set_z_orderEi
                0x00000000       0x70 bn_bgs_manager.o
 .text._ZN2bn13affine_bg_ptr12set_priorityEi
                0x00000000       0x68 bn_bgs_manager.o
 .text._ZN2bn14regular_bg_ptr12set_priorityEi
                0x00000000       0x68 bn_bgs_manager.o
 .group         0x00000000        0xc bn_cameras_manager.o
 .text          0x00000000        0x0 bn_cameras_manager.o
 .data          0x00000000        0x0 bn_cameras_manager.o
 .bss           0x00000000        0x0 bn_cameras_manager.o
 .text._ZN2bn7cameras16used_items_countEv
                0x00000000       0x10 bn_cameras_manager.o
 .text._ZN2bn7cameras21available_items_countEv
                0x00000000        0xc bn_cameras_manager.o
 .text._ZN2bn10camera_ptr15create_optionalENS_7fixed_tILi12EEES2_
                0x00000000       0x3c bn_cameras_manager.o
 .text._ZN2bn10camera_ptr15create_optionalERKNS_13fixed_point_tILi12EEE
                0x00000000       0x3c bn_cameras_manager.o
 .text._ZN2bn10camera_ptrC2ERKS0_
                0x00000000       0x20 bn_cameras_manager.o
 .text._ZN2bn10camera_ptraSERKS0_
                0x00000000       0x54 bn_cameras_manager.o
 .text._ZNK2bn10camera_ptr1xEv
                0x00000000       0x14 bn_cameras_manager.o
 .text._ZN2bn10camera_ptr5set_xENS_7fixed_tILi12EEE
                0x00000000       0x24 bn_cameras_manager.o
 .text._ZNK2bn10camera_ptr1yEv
                0x00000000       0x18 bn_cameras_manager.o
 .text._ZN2bn10camera_ptr5set_yENS_7fixed_tILi12EEE
                0x00000000       0x24 bn_cameras_manager.o
 .text._ZN2bn10camera_ptr12set_positionENS_7fixed_tILi12EEES2_
                0x00000000       0x38 bn_cameras_manager.o
 .text._ZN2bn10camera_ptr12set_positionERKNS_13fixed_point_tILi12EEE
                0x00000000       0x40 bn_cameras_manager.o
 .text._ZN2bn15cameras_manager16used_items_countEv
                0x00000000       0x10 bn_cameras_manager.o
 .text._ZN2bn15cameras_manager21available_items_countEv
                0x00000000        0xc bn_cameras_manager.o
 .text._ZN2bn15cameras_manager15create_optionalERKNS_13fixed_point_tILi12EEE
                0x00000000       0x3c bn_cameras_manager.o
 .text._ZN2bn15cameras_manager15increase_usagesEi
                0x00000000       0x18 bn_cameras_manager.o
 .text._ZN2bn15cameras_manager15decrease_usagesEi
                0x00000000       0x28 bn_cameras_manager.o
 .text._ZN2bn15cameras_manager8positionEi
                0x00000000       0x10 bn_cameras_manager.o
 .text._ZN2bn15cameras_manager5set_xEiNS_7fixed_tILi12EEE
                0x00000000       0x1c bn_cameras_manager.o
 .text._ZN2bn15cameras_manager5set_yEiNS_7fixed_tILi12EEE
                0x00000000       0x20 bn_cameras_manager.o
 .text._ZN2bn15cameras_manager12set_positionEiRKNS_13fixed_point_tILi12EEE
                0x00000000       0x38 bn_cameras_manager.o
 .text._ZN3_bn6assert9show_argsIA26_cEEvPKcS4_S4_iRKT_
                0x00000000       0x48 bn_cameras_manager.o
 .rodata._ZN2bn15cameras_manager6createERKNS_13fixed_point_tILi12EEE.str1.4
                0x00000000       0x3e bn_cameras_manager.o
 .text._ZN2bn15cameras_manager6createERKNS_13fixed_point_tILi12EEE
                0x00000000       0x5c bn_cameras_manager.o
 .text._ZN2bn10camera_ptr6createENS_7fixed_tILi12EEES2_
                0x00000000       0x58 bn_cameras_manager.o
 .text._ZN2bn10camera_ptr6createERKNS_13fixed_point_tILi12EEE
                0x00000000       0x5c bn_cameras_manager.o
 .group         0x00000000        0x8 bn_core.o
 .group         0x00000000        0xc bn_core.o
 .group         0x00000000        0xc bn_core.o
 .group         0x00000000        0xc bn_core.o
 .text          0x00000000        0x0 bn_core.o
 .data          0x00000000        0x0 bn_core.o
 .bss           0x00000000        0x0 bn_core.o
 .text._ZN2bn4core11skip_framesEv
                0x00000000        0xc bn_core.o
 .text._ZN2bn4core4initERKNS_8optionalINS_5colorEEE
                0x00000000       0x18 bn_core.o
 .text._ZN2bn4core4initERKNS_11string_viewE
                0x00000000       0x1c bn_core.o
 .text._ZN2bn4core5resetEv
                0x00000000       0x10 bn_core.o
 .text._ZN2bn4core10hard_resetEv
                0x00000000       0x10 bn_core.o
 .text._ZN2bn4core17current_cpu_usageEv
                0x00000000       0x2c bn_core.o
 .text._ZN2bn4core17current_cpu_ticksEv
                0x00000000       0x14 bn_core.o
 .text._ZN2bn4core14last_cpu_usageEv
                0x00000000       0x24 bn_core.o
 .text._ZN2bn4core14last_cpu_ticksEv
                0x00000000        0xc bn_core.o
 .text._ZN2bn4core17last_vblank_usageEv
                0x00000000       0x1c bn_core.o
 .text._ZN2bn4core17last_vblank_ticksEv
                0x00000000        0xc bn_core.o
 .text._ZN2bn4core18last_missed_framesEv
                0x00000000        0xc bn_core.o
 .text._ZN2bn4core15vblank_callbackEv
                0x00000000        0xc bn_core.o
 .text._ZN2bn4core19set_vblank_callbackEPFvvE
                0x00000000        0xc bn_core.o
 .text._ZN2bn4core13slow_game_pakEv
                0x00000000        0xc bn_core.o
 .text._ZN2bn4core11system_fontEv
                0x00000000        0x8 bn_core.o
 .text._ZN2bn4core15set_system_fontERKNS_11system_fontE
                0x00000000       0x18 bn_core.o
 .text._ZN2bn4core10assert_tagEv
                0x00000000        0x8 bn_core.o
 .text._ZN2bn4core14set_assert_tagERKNS_11string_viewE
                0x00000000        0xc bn_core.o
 .text._ZN2bn9core_lockC2Ev
                0x00000000       0x24 bn_core.o
 .text._ZN2bn9core_lockD2Ev
                0x00000000       0x4c bn_core.o
 .text._ZN2bn6memory11dma_enabledEv
                0x00000000        0xc bn_core.o
 .text._ZN2bn6memory15set_dma_enabledEb
                0x00000000        0xc bn_core.o
 .text._ZN2bn6assert8callbackEv
                0x00000000        0xc bn_core.o
 .text._ZN2bn6assert12set_callbackEPFvvE
                0x00000000        0xc bn_core.o
 .rodata._ZN3_bn6assert4showEPKci.str1.4
                0x00000000        0x1 bn_core.o
 .text._ZN3_bn6assert4showEPKci
                0x00000000       0x28 bn_core.o
 .text._ZN3_bn6assert4showEPKcS2_S2_i
                0x00000000       0x30 bn_core.o
 .text._ZN3_bn6assert4showEPKcS2_S2_iS2_
                0x00000000       0x2c bn_core.o
 .text._ZN3_bn6assert9show_argsIA22_ciEEvPKcS4_S4_iRKT_RKT0_
                0x00000000       0x54 bn_core.o
 .rodata._ZN2bn4core15set_skip_framesEi.str1.4
                0x00000000       0x46 bn_core.o
 .text._ZN2bn4core15set_skip_framesEi
                0x00000000       0x40 bn_core.o
 .text._ZN3_bn6assert9show_argsIA24_cEEvPKcS4_S4_iRKT_
                0x00000000       0x48 bn_core.o
 .rodata._ZN2bn4core5sleepERKNS_4spanIKNS_6keypad8key_typeEEE.str1.4
                0x00000000       0x38 bn_core.o
 .text._ZN2bn4core5sleepERKNS_4spanIKNS_6keypad8key_typeEEE
                0x00000000       0xc8 bn_core.o
 .text._ZN2bn4core5sleepENS_6keypad8key_typeE
                0x00000000       0x1c bn_core.o
 .text._ZN3_bn6assert9show_argsIA32_cEEvPKcS4_S4_iRKT_
                0x00000000       0x48 bn_core.o
 .rodata._ZN2bn4core14log_stacktraceEv.str1.4
                0x00000000       0x30 bn_core.o
 .text._ZN2bn4core14log_stacktraceEv
                0x00000000       0x28 bn_core.o
 .group         0x00000000        0xc bn_display_manager.o
 .group         0x00000000        0xc bn_display_manager.o
 .group         0x00000000        0xc bn_display_manager.o
 .group         0x00000000        0xc bn_display_manager.o
 .group         0x00000000        0xc bn_display_manager.o
 .group         0x00000000        0xc bn_display_manager.o
 .group         0x00000000        0xc bn_display_manager.o
 .group         0x00000000        0xc bn_display_manager.o
 .group         0x00000000        0xc bn_display_manager.o
 .group         0x00000000        0xc bn_display_manager.o
 .group         0x00000000        0xc bn_display_manager.o
 .group         0x00000000        0xc bn_display_manager.o
 .group         0x00000000        0xc bn_display_manager.o
 .group         0x00000000        0xc bn_display_manager.o
 .group         0x00000000        0xc bn_display_manager.o
 .group         0x00000000        0xc bn_display_manager.o
 .group         0x00000000        0xc bn_display_manager.o
 .text          0x00000000        0x0 bn_display_manager.o
 .data          0x00000000        0x0 bn_display_manager.o
 .bss           0x00000000        0x0 bn_display_manager.o
 .text._ZNK2bn6window7show_bgERKNS_14regular_bg_ptrE
                0x00000000       0x14 bn_display_manager.o
 .text._ZNK2bn6window7show_bgERKNS_13affine_bg_ptrE
                0x00000000       0x14 bn_display_manager.o
 .text._ZN2bn6window11set_show_bgERKNS_13affine_bg_ptrEb
                0x00000000       0x14 bn_display_manager.o
 .text._ZNK2bn6window13show_blendingEv
                0x00000000       0x18 bn_display_manager.o
 .text._ZNK2bn6window8show_allEv
                0x00000000       0x1c bn_display_manager.o
 .text._ZN2bn6window12set_show_allEv
                0x00000000       0x30 bn_display_manager.o
 .text._ZNK2bn6window12show_nothingEv
                0x00000000       0x1c bn_display_manager.o
 .text._ZN2bn6window16set_show_nothingEv
                0x00000000       0x30 bn_display_manager.o
 .text._ZN2bn6window7restoreEv
                0x00000000       0xd4 bn_display_manager.o
 .text._ZN2bn8blending18transparency_alphaEv
                0x00000000       0x18 bn_display_manager.o
 .text._ZN2bn8blending15intensity_alphaEv
                0x00000000       0x18 bn_display_manager.o
 .text._ZN2bn8blending23transparency_top_weightEv
                0x00000000       0x18 bn_display_manager.o
 .text._ZN2bn8blending26transparency_bottom_weightEv
                0x00000000       0x28 bn_display_manager.o
 .text._ZN2bn8blending10fade_colorEv
                0x00000000       0x10 bn_display_manager.o
 .text._ZN2bn8blending14set_fade_colorENS0_15fade_color_typeE
                0x00000000       0x28 bn_display_manager.o
 .text._ZN2bn8blending20set_black_fade_colorEv
                0x00000000       0x24 bn_display_manager.o
 .text._ZN2bn8blending20set_white_fade_colorEv
                0x00000000       0x28 bn_display_manager.o
 .text._ZN2bn8blending10fade_alphaEv
                0x00000000        0xc bn_display_manager.o
 .text._ZN2bn8blending7restoreEv
                0x00000000       0xc0 bn_display_manager.o
 .text._ZN2bn10bgs_mosaic18horizontal_stretchEv
                0x00000000        0xc bn_display_manager.o
 .text._ZN2bn10bgs_mosaic16vertical_stretchEv
                0x00000000        0xc bn_display_manager.o
 .text._ZN2bn10green_swap7enabledEv
                0x00000000        0xc bn_display_manager.o
 .text._ZN2bn10green_swap11set_enabledEb
                0x00000000       0x1c bn_display_manager.o
 .text._ZNK2bn11rect_window3topEv
                0x00000000       0x14 bn_display_manager.o
 .text._ZNK2bn11rect_window4leftEv
                0x00000000       0x14 bn_display_manager.o
 .text._ZNK2bn11rect_window8top_leftEv
                0x00000000       0x14 bn_display_manager.o
 .text._ZNK2bn11rect_window6bottomEv
                0x00000000       0x14 bn_display_manager.o
 .text._ZNK2bn11rect_window5rightEv
                0x00000000       0x14 bn_display_manager.o
 .text._ZNK2bn11rect_window12bottom_rightEv
                0x00000000       0x14 bn_display_manager.o
 .text._ZN2bn11rect_window14set_boundariesERKNS_12fixed_rect_tILi12EEE
                0x00000000       0x94 bn_display_manager.o
 .text._ZN2bn11rect_window14set_boundariesERKNS_21top_left_fixed_rect_tILi12EEE
                0x00000000       0x74 bn_display_manager.o
 .text._ZN2bn11rect_window18restore_boundariesEv
                0x00000000       0x4c bn_display_manager.o
 .text._ZNK2bn11rect_window6cameraEv
                0x00000000       0x14 bn_display_manager.o
 .text._ZN2bn11rect_window10set_cameraEONS_10camera_ptrE
                0x00000000       0x4c bn_display_manager.o
 .text._ZN2bn11rect_window13remove_cameraEv
                0x00000000       0x3c bn_display_manager.o
 .text._ZN2bn14sprites_mosaic18horizontal_stretchEv
                0x00000000        0xc bn_display_manager.o
 .text._ZN2bn14sprites_mosaic16vertical_stretchEv
                0x00000000        0xc bn_display_manager.o
 .text._ZN2bn15display_manager15sprites_visibleEv
                0x00000000        0xc bn_display_manager.o
 .text._ZN2bn15display_manager19set_sprites_visibleEb
                0x00000000       0x1c bn_display_manager.o
 .text._ZN2bn15display_manager10bg_enabledEi
                0x00000000        0xc bn_display_manager.o
 .text._ZN2bn15display_manager33sprites_mosaic_horizontal_stretchEv
                0x00000000        0xc bn_display_manager.o
 .text._ZN2bn15display_manager37set_sprites_mosaic_horizontal_stretchENS_7fixed_tILi12EEE
                0x00000000       0x34 bn_display_manager.o
 .text._ZN2bn15display_manager31sprites_mosaic_vertical_stretchEv
                0x00000000        0xc bn_display_manager.o
 .text._ZN2bn15display_manager35set_sprites_mosaic_vertical_stretchENS_7fixed_tILi12EEE
                0x00000000       0x34 bn_display_manager.o
 .text._ZN2bn15display_manager26set_sprites_mosaic_stretchENS_7fixed_tILi12EEE
                0x00000000       0x48 bn_display_manager.o
 .text._ZN2bn15display_manager26set_sprites_mosaic_stretchENS_7fixed_tILi12EEES2_
                0x00000000       0x50 bn_display_manager.o
 .text._ZN2bn15display_manager29bgs_mosaic_horizontal_stretchEv
                0x00000000        0xc bn_display_manager.o
 .text._ZN2bn15display_manager33set_bgs_mosaic_horizontal_stretchENS_7fixed_tILi12EEE
                0x00000000       0x34 bn_display_manager.o
 .text._ZN2bn15display_manager27bgs_mosaic_vertical_stretchEv
                0x00000000        0xc bn_display_manager.o
 .text._ZN2bn15display_manager31set_bgs_mosaic_vertical_stretchENS_7fixed_tILi12EEE
                0x00000000       0x34 bn_display_manager.o
 .text._ZN2bn15display_manager22set_bgs_mosaic_stretchENS_7fixed_tILi12EEE
                0x00000000       0x48 bn_display_manager.o
 .text._ZN2bn15display_manager22set_bgs_mosaic_stretchENS_7fixed_tILi12EEES2_
                0x00000000       0x50 bn_display_manager.o
 .text._ZN2bn15display_manager13reload_mosaicEv
                0x00000000       0x14 bn_display_manager.o
 .text._ZN2bn15display_manager23blending_top_bg_enabledEi
                0x00000000        0xc bn_display_manager.o
 .text._ZN2bn15display_manager26blending_bottom_bg_enabledEi
                0x00000000        0xc bn_display_manager.o
 .text._ZN2bn15display_manager31blending_bottom_sprites_enabledEv
                0x00000000        0xc bn_display_manager.o
 .text._ZN2bn15display_manager35set_blending_bottom_sprites_enabledEb
                0x00000000       0x1c bn_display_manager.o
 .text._ZN2bn15display_manager32blending_bottom_backdrop_enabledEv
                0x00000000        0xc bn_display_manager.o
 .text._ZN2bn15display_manager36set_blending_bottom_backdrop_enabledEb
                0x00000000       0x1c bn_display_manager.o
 .text._ZN2bn15display_manager27blending_transparency_alphaEv
                0x00000000       0x18 bn_display_manager.o
 .text._ZN2bn15display_manager31set_blending_transparency_alphaENS_7fixed_tILi12EEE
                0x00000000       0x34 bn_display_manager.o
 .text._ZN2bn15display_manager24blending_intensity_alphaEv
                0x00000000       0x18 bn_display_manager.o
 .text._ZN2bn15display_manager28set_blending_intensity_alphaENS_7fixed_tILi12EEE
                0x00000000       0x34 bn_display_manager.o
 .text._ZN2bn15display_manager36set_blending_transparency_top_weightENS_7fixed_tILi12EEE
                0x00000000       0x20 bn_display_manager.o
 .text._ZN2bn15display_manager39set_blending_transparency_bottom_weightENS_7fixed_tILi12EEE
                0x00000000       0x20 bn_display_manager.o
 .text._ZN2bn15display_manager33set_blending_transparency_weightsENS_7fixed_tILi12EEES2_
                0x00000000       0x34 bn_display_manager.o
 .text._ZN2bn15display_manager28reload_blending_transparencyEv
                0x00000000       0x14 bn_display_manager.o
 .text._ZN2bn15display_manager25set_blending_fade_enabledEb
                0x00000000       0x2c bn_display_manager.o
 .text._ZN2bn15display_manager22blending_fade_to_blackEv
                0x00000000        0xc bn_display_manager.o
 .text._ZN2bn15display_manager26set_blending_fade_to_blackEb
                0x00000000       0x24 bn_display_manager.o
 .text._ZN2bn15display_manager19blending_fade_alphaEv
                0x00000000        0xc bn_display_manager.o
 .text._ZN2bn15display_manager23set_blending_fade_alphaENS_7fixed_tILi12EEE
                0x00000000       0x5c bn_display_manager.o
 .text._ZN2bn15display_manager20reload_blending_fadeEv
                0x00000000       0x40 bn_display_manager.o
 .text._ZN2bn15display_manager22show_sprites_in_windowEi
                0x00000000       0x14 bn_display_manager.o
 .text._ZN2bn15display_manager26set_show_sprites_in_windowEib
                0x00000000       0x2c bn_display_manager.o
 .text._ZN2bn15display_manager23show_blending_in_windowEi
                0x00000000       0x14 bn_display_manager.o
 .text._ZN2bn15display_manager27set_show_blending_in_windowEib
                0x00000000       0x2c bn_display_manager.o
 .text._ZN2bn15display_manager18show_all_in_windowEi
                0x00000000       0x18 bn_display_manager.o
 .text._ZN2bn15display_manager22set_show_all_in_windowEi
                0x00000000       0x20 bn_display_manager.o
 .text._ZN2bn15display_manager22show_nothing_in_windowEi
                0x00000000       0x18 bn_display_manager.o
 .text._ZN2bn15display_manager26set_show_nothing_in_windowEi
                0x00000000       0x20 bn_display_manager.o
 .text._ZN2bn15display_manager20rect_window_top_leftEi
                0x00000000        0xc bn_display_manager.o
 .text._ZN2bn15display_manager24rect_window_bottom_rightEi
                0x00000000        0xc bn_display_manager.o
 .text._ZN2bn15display_manager24set_rect_window_top_leftEiRKNS_13fixed_point_tILi12EEE
                0x00000000       0x40 bn_display_manager.o
 .text._ZN2bn15display_manager28set_rect_window_bottom_rightEiRKNS_13fixed_point_tILi12EEE
                0x00000000       0x44 bn_display_manager.o
 .text._ZN2bn15display_manager18rect_window_cameraEi
                0x00000000       0x10 bn_display_manager.o
 .text._ZN2bn15display_manager22set_rect_window_cameraEiONS_10camera_ptrE
                0x00000000       0x48 bn_display_manager.o
 .text._ZN2bn11rect_window10set_cameraERKNS_10camera_ptrE
                0x00000000       0x24 bn_display_manager.o
 .text._ZN2bn11rect_window10set_cameraERKNS_8optionalINS_10camera_ptrEEE
                0x00000000       0x58 bn_display_manager.o
 .text._ZN2bn11rect_window10set_cameraEONS_8optionalINS_10camera_ptrEEE
                0x00000000       0x44 bn_display_manager.o
 .text._ZN2bn15display_manager25remove_rect_window_cameraEi
                0x00000000       0x38 bn_display_manager.o
 .text._ZN2bn15display_manager30reload_rect_windows_boundariesEv
                0x00000000       0x14 bn_display_manager.o
 .text._ZN2bn15display_manager21inside_window_enabledEi
                0x00000000        0xc bn_display_manager.o
 .text._ZN2bn15display_manager25set_inside_window_enabledEib
                0x00000000       0x1c bn_display_manager.o
 .text._ZN2bn15display_manager18green_swap_enabledEv
                0x00000000        0xc bn_display_manager.o
 .text._ZN2bn15display_manager22set_green_swap_enabledEb
                0x00000000       0x1c bn_display_manager.o
 .text._ZN2bn15display_manager17reload_green_swapEv
                0x00000000       0x14 bn_display_manager.o
 .text._ZN2bn15display_manager5sleepEv
                0x00000000       0x10 bn_display_manager.o
 .text._ZN2bn15display_manager7wake_upEv
                0x00000000       0x10 bn_display_manager.o
 .text._ZN2bn15display_manager13set_show_modeEv
                0x00000000       0x20 bn_display_manager.o
 .text._ZN2bn8blending27set_transparency_attributesERKNS_32blending_transparency_attributesE
                0x00000000       0x84 bn_display_manager.o
 .rodata._ZN2bn8blending14set_fade_alphaENS_19blending_fade_alphaE.str1.4
                0x00000000        0xf bn_display_manager.o
 .text._ZN2bn8blending14set_fade_alphaENS_19blending_fade_alphaE
                0x00000000       0xb4 bn_display_manager.o
 .text._ZN3_bn6assert9show_argsIA63_cEEvPKcS4_S4_iRKT_
                0x00000000       0x48 bn_display_manager.o
 .text._ZN2bn13ostringstream6appendILi12EEEvNS_7fixed_tIXT_EEE
                0x00000000       0xa0 bn_display_manager.o
 .rodata._ZN2bn10bgs_mosaic22set_horizontal_stretchENS_7fixed_tILi12EEE.str1.4
                0x00000000       0x7d bn_display_manager.o
 .text._ZN2bn10bgs_mosaic22set_horizontal_stretchENS_7fixed_tILi12EEE
                0x00000000       0x64 bn_display_manager.o
 .rodata._ZN2bn14sprites_mosaic22set_horizontal_stretchENS_7fixed_tILi12EEE.str1.4
                0x00000000       0x18 bn_display_manager.o
 .text._ZN2bn14sprites_mosaic22set_horizontal_stretchENS_7fixed_tILi12EEE
                0x00000000       0x64 bn_display_manager.o
 .text._ZN3_bn6assert9show_argsIA26_cN2bn7fixed_tILi12EEEEEvPKcS7_S7_iRKT_RKT0_
                0x00000000       0x54 bn_display_manager.o
 .rodata._ZN2bn8blending19set_intensity_alphaENS_7fixed_tILi12EEE.str1.4
                0x00000000       0x9f bn_display_manager.o
 .text._ZN2bn8blending19set_intensity_alphaENS_7fixed_tILi12EEE
                0x00000000       0x94 bn_display_manager.o
 .rodata._ZN2bn8blending24set_transparency_weightsENS_7fixed_tILi12EEES2_.str1.4
                0x00000000       0x19 bn_display_manager.o
 .text._ZN2bn8blending24set_transparency_weightsENS_7fixed_tILi12EEES2_
                0x00000000       0xb8 bn_display_manager.o
 .rodata._ZN2bn8blending23transparency_attributesEv.str1.4
                0x00000000       0x4a bn_display_manager.o
 .text._ZN2bn8blending23transparency_attributesEv
                0x00000000       0x98 bn_display_manager.o
 .text._ZN3_bn6assert9show_argsIA21_cN2bn7fixed_tILi12EEEEEvPKcS7_S7_iRKT_RKT0_
                0x00000000       0x54 bn_display_manager.o
 .rodata._ZN2bn8blending14set_fade_alphaENS_7fixed_tILi12EEE.str1.4
                0x00000000       0x39 bn_display_manager.o
 .text._ZN2bn8blending14set_fade_alphaENS_7fixed_tILi12EEE
                0x00000000       0x90 bn_display_manager.o
 .text._ZN3_bn6assert9show_argsIA27_cN2bn7fixed_tILi12EEEEEvPKcS7_S7_iRKT_RKT0_
                0x00000000       0x54 bn_display_manager.o
 .rodata._ZN2bn10bgs_mosaic20set_vertical_stretchENS_7fixed_tILi12EEE.str1.4
                0x00000000       0x63 bn_display_manager.o
 .text._ZN2bn10bgs_mosaic20set_vertical_stretchENS_7fixed_tILi12EEE
                0x00000000       0x64 bn_display_manager.o
 .rodata._ZN2bn10bgs_mosaic11set_stretchENS_7fixed_tILi12EEES2_.str1.4
                0x00000000        0xc bn_display_manager.o
 .text._ZN2bn10bgs_mosaic11set_stretchENS_7fixed_tILi12EEES2_
                0x00000000       0x98 bn_display_manager.o
 .text._ZN2bn14sprites_mosaic20set_vertical_stretchENS_7fixed_tILi12EEE
                0x00000000       0x64 bn_display_manager.o
 .text._ZN2bn14sprites_mosaic11set_stretchENS_7fixed_tILi12EEES2_
                0x00000000       0x98 bn_display_manager.o
 .text._ZN3_bn6assert9show_argsIA18_cN2bn7fixed_tILi12EEEEEvPKcS7_S7_iRKT_RKT0_
                0x00000000       0x54 bn_display_manager.o
 .rodata._ZN2bn10bgs_mosaic11set_stretchENS_7fixed_tILi12EEE.str1.4
                0x00000000       0x32 bn_display_manager.o
 .text._ZN2bn10bgs_mosaic11set_stretchENS_7fixed_tILi12EEE
                0x00000000       0x70 bn_display_manager.o
 .text._ZN2bn14sprites_mosaic11set_stretchENS_7fixed_tILi12EEE
                0x00000000       0x70 bn_display_manager.o
 .text._ZN3_bn6assert9show_argsIA16_cN2bn7fixed_tILi12EEEEEvPKcS7_S7_iRKT_RKT0_
                0x00000000       0x54 bn_display_manager.o
 .text._ZN2bn11rect_window14set_boundariesERKNS_13fixed_point_tILi12EEES4_
                0x00000000       0x8c bn_display_manager.o
 .text._ZN3_bn6assert9show_argsIJA16_cN2bn7fixed_tILi12EEEA4_cS5_EEEvPKcS8_S8_iDpRKT_
                0x00000000       0x58 bn_display_manager.o
 .rodata._ZN2bn11rect_window9set_rightENS_7fixed_tILi12EEE.str1.4
                0x00000000       0x34 bn_display_manager.o
 .text._ZN2bn11rect_window9set_rightENS_7fixed_tILi12EEE
                0x00000000       0x70 bn_display_manager.o
 .text._ZN3_bn6assert9show_argsIJA17_cN2bn7fixed_tILi12EEEA4_cS5_EEEvPKcS8_S8_iDpRKT_
                0x00000000       0x58 bn_display_manager.o
 .rodata._ZN2bn11rect_window10set_bottomENS_7fixed_tILi12EEE.str1.4
                0x00000000       0x39 bn_display_manager.o
 .text._ZN2bn11rect_window10set_bottomENS_7fixed_tILi12EEE
                0x00000000       0x74 bn_display_manager.o
 .rodata._ZN2bn11rect_window16set_bottom_rightERKNS_13fixed_point_tILi12EEE.str1.4
                0x00000000       0x5b bn_display_manager.o
 .text._ZN2bn11rect_window16set_bottom_rightERKNS_13fixed_point_tILi12EEE
                0x00000000       0x90 bn_display_manager.o
 .text._ZN2bn11rect_window16set_bottom_rightENS_7fixed_tILi12EEES2_
                0x00000000       0x14 bn_display_manager.o
 .text._ZN3_bn6assert9show_argsIJA15_cN2bn7fixed_tILi12EEEA4_cS5_EEEvPKcS8_S8_iDpRKT_
                0x00000000       0x58 bn_display_manager.o
 .rodata._ZN2bn11rect_window8set_leftENS_7fixed_tILi12EEE.str1.4
                0x00000000       0x37 bn_display_manager.o
 .text._ZN2bn11rect_window8set_leftENS_7fixed_tILi12EEE
                0x00000000       0x74 bn_display_manager.o
 .text._ZN3_bn6assert9show_argsIJA14_cN2bn7fixed_tILi12EEEA4_cS5_EEEvPKcS8_S8_iDpRKT_
                0x00000000       0x58 bn_display_manager.o
 .rodata._ZN2bn11rect_window7set_topENS_7fixed_tILi12EEE.str1.4
                0x00000000       0x32 bn_display_manager.o
 .text._ZN2bn11rect_window7set_topENS_7fixed_tILi12EEE
                0x00000000       0x74 bn_display_manager.o
 .rodata._ZN2bn11rect_window12set_top_leftERKNS_13fixed_point_tILi12EEE.str1.4
                0x00000000       0x57 bn_display_manager.o
 .text._ZN2bn11rect_window12set_top_leftERKNS_13fixed_point_tILi12EEE
                0x00000000       0x90 bn_display_manager.o
 .text._ZN2bn11rect_window12set_top_leftENS_7fixed_tILi12EEES2_
                0x00000000       0x14 bn_display_manager.o
 .text._ZN3_bn6assert9show_argsIA17_cN2bn7fixed_tILi12EEEEEvPKcS7_S7_iRKT_RKT0_
                0x00000000       0x54 bn_display_manager.o
 .rodata._ZNK2bn11rect_window10boundariesEv.str1.4
                0x00000000       0x59 bn_display_manager.o
 .text._ZNK2bn11rect_window10boundariesEv
                0x00000000       0x8c bn_display_manager.o
 .text._ZNK2bn11rect_window19top_left_boundariesEv
                0x00000000       0x88 bn_display_manager.o
 .group         0x00000000        0xc bn_gpio_manager.o
 .group         0x00000000        0xc bn_gpio_manager.o
 .group         0x00000000        0xc bn_gpio_manager.o
 .group         0x00000000        0xc bn_gpio_manager.o
 .group         0x00000000        0xc bn_gpio_manager.o
 .text          0x00000000        0x0 bn_gpio_manager.o
 .data          0x00000000        0x0 bn_gpio_manager.o
 .bss           0x00000000        0x0 bn_gpio_manager.o
 .text._ZN2bn4date6activeEv
                0x00000000       0x5c bn_gpio_manager.o
 .text._ZN2bn4time6activeEv
                0x00000000       0x5c bn_gpio_manager.o
 .text._ZN2bn6rumble7enabledEv
                0x00000000        0xc bn_gpio_manager.o
 .text._ZN2bn6rumble11set_enabledEb
                0x00000000       0x40 bn_gpio_manager.o
 .text._ZN2bn12gpio_manager10rtc_activeEv
                0x00000000       0x5c bn_gpio_manager.o
 .text._ZN2bn12gpio_manager14rumble_enabledEv
                0x00000000        0xc bn_gpio_manager.o
 .text._ZN2bn12gpio_manager18set_rumble_enabledEb
                0x00000000       0x40 bn_gpio_manager.o
 .text._ZN2bn12gpio_manager7wake_upEv
                0x00000000       0x30 bn_gpio_manager.o
 .text._ZN3_bn6assert9show_argsIJA15_ciciciA3_cicEEEvPKcS5_S5_iDpRKT_
                0x00000000       0x98 bn_gpio_manager.o
 .rodata._ZN2bn2hw4gpio8rtc_dateEv.str1.4
                0x00000000       0x2b bn_gpio_manager.o
 .text._ZN2bn2hw4gpio8rtc_dateEv
                0x00000000      0x180 bn_gpio_manager.o
 .text._ZN2bn12gpio_manager12current_dateEv
                0x00000000       0x74 bn_gpio_manager.o
 .text._ZN2bn4date7currentEv
                0x00000000       0x10 bn_gpio_manager.o
 .text._ZN3_bn6assert9show_argsIA15_ciEEvPKcS4_S4_iRKT_RKT0_
                0x00000000       0x54 bn_gpio_manager.o
 .text._ZN3_bn6assert9show_argsIA17_ciEEvPKcS4_S4_iRKT_RKT0_
                0x00000000       0x54 bn_gpio_manager.o
 .text._ZN2bn2hw4gpio8rtc_timeEv
                0x00000000       0x8c bn_gpio_manager.o
 .text._ZN2bn12gpio_manager12current_timeEv
                0x00000000       0x74 bn_gpio_manager.o
 .text._ZN2bn4time7currentEv
                0x00000000       0x74 bn_gpio_manager.o
 .group         0x00000000        0xc bn_hblank_effects_manager.o
 .group         0x00000000        0xc bn_hblank_effects_manager.o
 .group         0x00000000        0xc bn_hblank_effects_manager.o
 .group         0x00000000        0xc bn_hblank_effects_manager.o
 .group         0x00000000        0xc bn_hblank_effects_manager.o
 .group         0x00000000        0xc bn_hblank_effects_manager.o
 .group         0x00000000        0xc bn_hblank_effects_manager.o
 .group         0x00000000        0xc bn_hblank_effects_manager.o
 .group         0x00000000        0xc bn_hblank_effects_manager.o
 .group         0x00000000        0xc bn_hblank_effects_manager.o
 .group         0x00000000        0xc bn_hblank_effects_manager.o
 .group         0x00000000        0xc bn_hblank_effects_manager.o
 .group         0x00000000        0xc bn_hblank_effects_manager.o
 .text          0x00000000        0x0 bn_hblank_effects_manager.o
 .data          0x00000000        0x0 bn_hblank_effects_manager.o
 .bss           0x00000000        0x0 bn_hblank_effects_manager.o
 .text._ZN2bn4hbes10used_countEv
                0x00000000       0x1c bn_hblank_effects_manager.o
 .text._ZN2bn4hbes15available_countEv
                0x00000000       0x10 bn_hblank_effects_manager.o
 .text._ZNK2bn7hbe_ptr7visibleEv
                0x00000000       0x1c bn_hblank_effects_manager.o
 .text._ZN2bn7hbe_ptrC2ERKS0_
                0x00000000       0x20 bn_hblank_effects_manager.o
 .text._ZN2bn24bg_palette_color_hbe_ptr17reload_colors_refEv
                0x00000000       0x2c bn_hblank_effects_manager.o
 .text._ZN2bn24bg_palette_color_hbe_ptr4swapERS0_
                0x00000000       0x2c bn_hblank_effects_manager.o
 .text._ZN2bn24bg_palette_color_hbe_ptrC2EiiONS_14bg_palette_ptrE
                0x00000000       0x10 bn_hblank_effects_manager.o
 .text._ZN2bn37bg_palettes_transparent_color_hbe_ptr17reload_colors_refEv
                0x00000000       0x2c bn_hblank_effects_manager.o
 .text._ZN2bn37bg_palettes_transparent_color_hbe_ptr4swapERS0_
                0x00000000       0x10 bn_hblank_effects_manager.o
 .text._ZN2bn37bg_palettes_transparent_color_hbe_ptrC2Ei
                0x00000000        0x4 bn_hblank_effects_manager.o
 .text._ZN2bn22backdrop_color_hbe_ptr17reload_colors_refEv
                0x00000000       0x2c bn_hblank_effects_manager.o
 .text._ZN2bn22backdrop_color_hbe_ptr4swapERS0_
                0x00000000       0x10 bn_hblank_effects_manager.o
 .text._ZN2bn27blending_fade_alpha_hbe_ptr17reload_alphas_refEv
                0x00000000       0x2c bn_hblank_effects_manager.o
 .text._ZN2bn40blending_transparency_attributes_hbe_ptr21reload_attributes_refEv
                0x00000000       0x2c bn_hblank_effects_manager.o
 .text._ZN2bn18green_swap_hbe_ptr17reload_states_refEv
                0x00000000       0x2c bn_hblank_effects_manager.o
 .text._ZN2bn18green_swap_hbe_ptr4swapERS0_
                0x00000000       0x10 bn_hblank_effects_manager.o
 .text._ZN2bn25mosaic_attributes_hbe_ptr21reload_attributes_refEv
                0x00000000       0x2c bn_hblank_effects_manager.o
 .text._ZN2bn30rect_window_boundaries_hbe_ptr17reload_deltas_refEv
                0x00000000       0x2c bn_hblank_effects_manager.o
 .text._ZN2bn30rect_window_boundaries_hbe_ptr4swapERS0_
                0x00000000       0x18 bn_hblank_effects_manager.o
 .text._ZN2bn30rect_window_boundaries_hbe_ptrC2EiNS_11rect_windowE
                0x00000000        0x8 bn_hblank_effects_manager.o
 .text._ZN2bn29regular_bg_attributes_hbe_ptr21reload_attributes_refEv
                0x00000000       0x2c bn_hblank_effects_manager.o
 .text._ZN2bn29regular_bg_attributes_hbe_ptr4swapERS0_
                0x00000000       0x18 bn_hblank_effects_manager.o
 .text._ZN2bn29regular_bg_attributes_hbe_ptrC2EiONS_14regular_bg_ptrE
                0x00000000        0xc bn_hblank_effects_manager.o
 .text._ZN2bn28affine_bg_attributes_hbe_ptr21reload_attributes_refEv
                0x00000000       0x2c bn_hblank_effects_manager.o
 .text._ZN2bn28affine_bg_attributes_hbe_ptr4swapERS0_
                0x00000000       0x18 bn_hblank_effects_manager.o
 .text._ZN2bn28affine_bg_attributes_hbe_ptrC2EiONS_13affine_bg_ptrE
                0x00000000        0xc bn_hblank_effects_manager.o
 .text._ZN2bn27regular_bg_position_hbe_ptr17reload_deltas_refEv
                0x00000000       0x2c bn_hblank_effects_manager.o
 .text._ZN2bn27regular_bg_position_hbe_ptr4swapERS0_
                0x00000000       0x18 bn_hblank_effects_manager.o
 .text._ZN2bn27regular_bg_position_hbe_ptrC2EiONS_14regular_bg_ptrE
                0x00000000        0xc bn_hblank_effects_manager.o
 .text._ZN2bn32affine_bg_pivot_position_hbe_ptr17reload_deltas_refEv
                0x00000000       0x2c bn_hblank_effects_manager.o
 .text._ZN2bn32affine_bg_pivot_position_hbe_ptr4swapERS0_
                0x00000000       0x18 bn_hblank_effects_manager.o
 .text._ZN2bn32affine_bg_pivot_position_hbe_ptrC2EiONS_13affine_bg_ptrE
                0x00000000        0xc bn_hblank_effects_manager.o
 .text._ZN2bn29affine_bg_pa_register_hbe_ptr21reload_attributes_refEv
                0x00000000       0x2c bn_hblank_effects_manager.o
 .text._ZN2bn29affine_bg_pa_register_hbe_ptr17reload_values_refEv
                0x00000000       0x2c bn_hblank_effects_manager.o
 .text._ZN2bn29affine_bg_pa_register_hbe_ptr4swapERS0_
                0x00000000       0x20 bn_hblank_effects_manager.o
 .text._ZN2bn29affine_bg_pa_register_hbe_ptrC2EibONS_13affine_bg_ptrE
                0x00000000       0x10 bn_hblank_effects_manager.o
 .text._ZN2bn29affine_bg_pb_register_hbe_ptr21reload_attributes_refEv
                0x00000000       0x2c bn_hblank_effects_manager.o
 .text._ZN2bn29affine_bg_pb_register_hbe_ptr17reload_values_refEv
                0x00000000       0x2c bn_hblank_effects_manager.o
 .text._ZN2bn29affine_bg_pb_register_hbe_ptr4swapERS0_
                0x00000000       0x20 bn_hblank_effects_manager.o
 .text._ZN2bn29affine_bg_pb_register_hbe_ptrC2EibONS_13affine_bg_ptrE
                0x00000000       0x10 bn_hblank_effects_manager.o
 .text._ZN2bn29affine_bg_pc_register_hbe_ptr21reload_attributes_refEv
                0x00000000       0x2c bn_hblank_effects_manager.o
 .text._ZN2bn29affine_bg_pc_register_hbe_ptr17reload_values_refEv
                0x00000000       0x2c bn_hblank_effects_manager.o
 .text._ZN2bn29affine_bg_pc_register_hbe_ptr4swapERS0_
                0x00000000       0x20 bn_hblank_effects_manager.o
 .text._ZN2bn29affine_bg_pc_register_hbe_ptrC2EibONS_13affine_bg_ptrE
                0x00000000       0x10 bn_hblank_effects_manager.o
 .text._ZN2bn29affine_bg_pd_register_hbe_ptr21reload_attributes_refEv
                0x00000000       0x2c bn_hblank_effects_manager.o
 .text._ZN2bn29affine_bg_pd_register_hbe_ptr17reload_values_refEv
                0x00000000       0x2c bn_hblank_effects_manager.o
 .text._ZN2bn29affine_bg_pd_register_hbe_ptr4swapERS0_
                0x00000000       0x20 bn_hblank_effects_manager.o
 .text._ZN2bn29affine_bg_pd_register_hbe_ptrC2EibONS_13affine_bg_ptrE
                0x00000000       0x10 bn_hblank_effects_manager.o
 .text._ZN2bn29affine_bg_dx_register_hbe_ptr21reload_attributes_refEv
                0x00000000       0x2c bn_hblank_effects_manager.o
 .text._ZN2bn29affine_bg_dx_register_hbe_ptr17reload_values_refEv
                0x00000000       0x2c bn_hblank_effects_manager.o
 .text._ZN2bn29affine_bg_dx_register_hbe_ptr4swapERS0_
                0x00000000       0x20 bn_hblank_effects_manager.o
 .text._ZN2bn29affine_bg_dx_register_hbe_ptrC2EibONS_13affine_bg_ptrE
                0x00000000       0x10 bn_hblank_effects_manager.o
 .text._ZN2bn29affine_bg_dy_register_hbe_ptr21reload_attributes_refEv
                0x00000000       0x2c bn_hblank_effects_manager.o
 .text._ZN2bn29affine_bg_dy_register_hbe_ptr17reload_values_refEv
                0x00000000       0x2c bn_hblank_effects_manager.o
 .text._ZN2bn29affine_bg_dy_register_hbe_ptr4swapERS0_
                0x00000000       0x20 bn_hblank_effects_manager.o
 .text._ZN2bn29affine_bg_dy_register_hbe_ptrC2EibONS_13affine_bg_ptrE
                0x00000000       0x10 bn_hblank_effects_manager.o
 .text._ZN2bn32affine_bg_mat_attributes_hbe_ptr21reload_attributes_refEv
                0x00000000       0xdc bn_hblank_effects_manager.o
 .text._ZN2bn32affine_bg_mat_attributes_hbe_ptr4swapERS0_
                0x00000000       0xb0 bn_hblank_effects_manager.o
 .text._ZN2bn32affine_bg_mat_attributes_hbe_ptrC2EONS_29affine_bg_pa_register_hbe_ptrEONS_29affine_bg_pb_register_hbe_ptrEONS_29affine_bg_pc_register_hbe_ptrEONS_29affine_bg_pd_register_hbe_ptrEONS_29affine_bg_dx_register_hbe_ptrEONS_29affine_bg_dy_register_hbe_ptrE
                0x00000000       0x98 bn_hblank_effects_manager.o
 .text._ZN2bn36sprite_affine_mat_attributes_hbe_ptr21reload_attributes_refEv
                0x00000000       0x98 bn_hblank_effects_manager.o
 .text._ZN2bn36sprite_affine_mat_attributes_hbe_ptr4swapERS0_
                0x00000000       0x84 bn_hblank_effects_manager.o
 .text._ZN2bn36sprite_affine_mat_attributes_hbe_ptrC2EONS_37sprite_affine_mat_pa_register_hbe_ptrEONS_37sprite_affine_mat_pb_register_hbe_ptrEONS_37sprite_affine_mat_pc_register_hbe_ptrEONS_37sprite_affine_mat_pd_register_hbe_ptrE
                0x00000000       0x5c bn_hblank_effects_manager.o
 .text._ZN2bn37sprite_affine_mat_pa_register_hbe_ptr21reload_attributes_refEv
                0x00000000       0x2c bn_hblank_effects_manager.o
 .text._ZN2bn37sprite_affine_mat_pa_register_hbe_ptr17reload_values_refEv
                0x00000000       0x2c bn_hblank_effects_manager.o
 .text._ZN2bn37sprite_affine_mat_pa_register_hbe_ptr4swapERS0_
                0x00000000       0x24 bn_hblank_effects_manager.o
 .text._ZN2bn37sprite_affine_mat_pa_register_hbe_ptrC2EibONS_21sprite_affine_mat_ptrE
                0x00000000       0x10 bn_hblank_effects_manager.o
 .text._ZN2bn37sprite_affine_mat_pb_register_hbe_ptr21reload_attributes_refEv
                0x00000000       0x2c bn_hblank_effects_manager.o
 .text._ZN2bn37sprite_affine_mat_pb_register_hbe_ptr17reload_values_refEv
                0x00000000       0x2c bn_hblank_effects_manager.o
 .text._ZN2bn37sprite_affine_mat_pb_register_hbe_ptr4swapERS0_
                0x00000000       0x24 bn_hblank_effects_manager.o
 .text._ZN2bn37sprite_affine_mat_pb_register_hbe_ptrC2EibONS_21sprite_affine_mat_ptrE
                0x00000000       0x10 bn_hblank_effects_manager.o
 .text._ZN2bn37sprite_affine_mat_pc_register_hbe_ptr21reload_attributes_refEv
                0x00000000       0x2c bn_hblank_effects_manager.o
 .text._ZN2bn37sprite_affine_mat_pc_register_hbe_ptr17reload_values_refEv
                0x00000000       0x2c bn_hblank_effects_manager.o
 .text._ZN2bn37sprite_affine_mat_pc_register_hbe_ptr4swapERS0_
                0x00000000       0x24 bn_hblank_effects_manager.o
 .text._ZN2bn37sprite_affine_mat_pc_register_hbe_ptrC2EibONS_21sprite_affine_mat_ptrE
                0x00000000       0x10 bn_hblank_effects_manager.o
 .text._ZN2bn37sprite_affine_mat_pd_register_hbe_ptr21reload_attributes_refEv
                0x00000000       0x2c bn_hblank_effects_manager.o
 .text._ZN2bn37sprite_affine_mat_pd_register_hbe_ptr17reload_values_refEv
                0x00000000       0x2c bn_hblank_effects_manager.o
 .text._ZN2bn37sprite_affine_mat_pd_register_hbe_ptr4swapERS0_
                0x00000000       0x24 bn_hblank_effects_manager.o
 .text._ZN2bn37sprite_affine_mat_pd_register_hbe_ptrC2EibONS_21sprite_affine_mat_ptrE
                0x00000000       0x10 bn_hblank_effects_manager.o
 .text._ZN2bn39sprite_affine_second_attributes_hbe_ptr21reload_attributes_refEv
                0x00000000       0x2c bn_hblank_effects_manager.o
 .text._ZN2bn39sprite_affine_second_attributes_hbe_ptr4swapERS0_
                0x00000000       0x18 bn_hblank_effects_manager.o
 .text._ZN2bn39sprite_affine_second_attributes_hbe_ptrC2EiONS_10sprite_ptrE
                0x00000000        0xc bn_hblank_effects_manager.o
 .text._ZN2bn31sprite_first_attributes_hbe_ptr21reload_attributes_refEv
                0x00000000       0x2c bn_hblank_effects_manager.o
 .text._ZN2bn31sprite_first_attributes_hbe_ptr4swapERS0_
                0x00000000       0x18 bn_hblank_effects_manager.o
 .text._ZN2bn31sprite_first_attributes_hbe_ptrC2EiONS_10sprite_ptrE
                0x00000000        0xc bn_hblank_effects_manager.o
 .text._ZN2bn28sprite_palette_color_hbe_ptr17reload_colors_refEv
                0x00000000       0x2c bn_hblank_effects_manager.o
 .text._ZN2bn28sprite_palette_color_hbe_ptr4swapERS0_
                0x00000000       0x2c bn_hblank_effects_manager.o
 .text._ZN2bn28sprite_palette_color_hbe_ptrC2EiiONS_18sprite_palette_ptrE
                0x00000000       0x10 bn_hblank_effects_manager.o
 .text._ZN2bn23sprite_position_hbe_ptr17reload_deltas_refEv
                0x00000000       0x2c bn_hblank_effects_manager.o
 .text._ZN2bn23sprite_position_hbe_ptr4swapERS0_
                0x00000000       0x18 bn_hblank_effects_manager.o
 .text._ZN2bn23sprite_position_hbe_ptrC2EiONS_10sprite_ptrE
                0x00000000        0xc bn_hblank_effects_manager.o
 .text._ZN2bn40sprite_regular_second_attributes_hbe_ptr21reload_attributes_refEv
                0x00000000       0x2c bn_hblank_effects_manager.o
 .text._ZN2bn40sprite_regular_second_attributes_hbe_ptr4swapERS0_
                0x00000000       0x18 bn_hblank_effects_manager.o
 .text._ZN2bn40sprite_regular_second_attributes_hbe_ptrC2EiONS_10sprite_ptrE
                0x00000000        0xc bn_hblank_effects_manager.o
 .text._ZN2bn31sprite_third_attributes_hbe_ptr21reload_attributes_refEv
                0x00000000       0x2c bn_hblank_effects_manager.o
 .text._ZN2bn31sprite_third_attributes_hbe_ptr4swapERS0_
                0x00000000       0x18 bn_hblank_effects_manager.o
 .text._ZN2bn31sprite_third_attributes_hbe_ptrC2EiONS_10sprite_ptrE
                0x00000000        0xc bn_hblank_effects_manager.o
 .text._ZN2bn22hblank_effects_manager10used_countEv
                0x00000000       0x1c bn_hblank_effects_manager.o
 .text._ZN2bn22hblank_effects_manager15available_countEv
                0x00000000       0x10 bn_hblank_effects_manager.o
 .text._ZN2bn22hblank_effects_manager6enableEv
                0x00000000       0x24 bn_hblank_effects_manager.o
 .text._ZN2bn22hblank_effects_manager15increase_usagesEi
                0x00000000       0x18 bn_hblank_effects_manager.o
 .text._ZN2bn22hblank_effects_manager10values_refEi
                0x00000000       0x14 bn_hblank_effects_manager.o
 .text._ZN2bn22hblank_effects_manager17reload_values_refEi
                0x00000000       0x28 bn_hblank_effects_manager.o
 .text._ZN2bn22hblank_effects_manager7visibleEi
                0x00000000       0x18 bn_hblank_effects_manager.o
 .text._ZN3_bn6assert9show_argsIA18_ciEEvPKcS4_S4_iRKT_RKT0_
                0x00000000       0x54 bn_hblank_effects_manager.o
 .rodata._ZN2bn22hblank_effects_manager12_GLOBAL__N_19item_type7cleanupEv.str1.4
                0x00000000        0x8 bn_hblank_effects_manager.o
 .text._ZN2bn22hblank_effects_manager12_GLOBAL__N_19item_type7cleanupEv
                0x00000000       0x9c bn_hblank_effects_manager.o
 .rodata._ZN2bn22hblank_effects_manager12_GLOBAL__N_19item_type7cleanupEv
                0x00000000       0xa4 bn_hblank_effects_manager.o
 .rodata._ZN2bn22hblank_effects_manager12_GLOBAL__N_126_update_visible_item_indexEi.str1.4
                0x00000000        0x5 bn_hblank_effects_manager.o
 .text._ZN2bn22hblank_effects_manager12_GLOBAL__N_126_update_visible_item_indexEi
                0x00000000       0x98 bn_hblank_effects_manager.o
 .text._ZN2bn22hblank_effects_manager11set_visibleEib
                0x00000000       0x68 bn_hblank_effects_manager.o
 .text._ZN2bn7hbe_ptr11set_visibleEb
                0x00000000       0x6c bn_hblank_effects_manager.o
 .text._ZN2bn36sprite_affine_mat_attributes_hbe_ptr11set_visibleEb
                0x00000000       0x98 bn_hblank_effects_manager.o
 .text._ZN2bn32affine_bg_mat_attributes_hbe_ptr11set_visibleEb
                0x00000000       0xac bn_hblank_effects_manager.o
 .text._ZN3_bn6assert9show_argsIJA22_ciA4_ciEEEvPKcS5_S5_iDpRKT_
                0x00000000       0x64 bn_hblank_effects_manager.o
 .text._ZN3_bn6assert9show_argsIA66_cEEvPKcS4_S4_iRKT_
                0x00000000       0x48 bn_hblank_effects_manager.o
 .text._ZN3_bn6assert9show_argsIA42_cEEvPKcS4_S4_iRKT_
                0x00000000       0x48 bn_hblank_effects_manager.o
 .text._ZN3_bn6assert9show_argsIA22_cEEvPKcS4_S4_iRKT_
                0x00000000       0x48 bn_hblank_effects_manager.o
 .rodata._ZN2bn8optionalINS_29affine_bg_pa_register_hbe_ptrEEdeEv.part.0.str1.4
                0x00000000       0x32 bn_hblank_effects_manager.o
 .text._ZN2bn8optionalINS_29affine_bg_pa_register_hbe_ptrEEdeEv.part.0
                0x00000000       0x28 bn_hblank_effects_manager.o
 .text._ZN3_bn6assert9show_argsIA21_cEEvPKcS4_S4_iRKT_
                0x00000000       0x48 bn_hblank_effects_manager.o
 .text._ZN3_bn6assert9show_argsIA25_cEEvPKcS4_S4_iRKT_
                0x00000000       0x48 bn_hblank_effects_manager.o
 .text._ZN3_bn6assert9show_argsIA23_cEEvPKcS4_S4_iRKT_
                0x00000000       0x48 bn_hblank_effects_manager.o
 .text._ZN3_bn6assert9show_argsIA34_cEEvPKcS4_S4_iRKT_
                0x00000000       0x48 bn_hblank_effects_manager.o
 .rodata._ZN2bn22hblank_effects_manager12_GLOBAL__N_17_createEPKviNS0_12handler_typeEb.str1.4
                0x00000000       0x95 bn_hblank_effects_manager.o
 .text._ZN2bn22hblank_effects_manager12_GLOBAL__N_17_createEPKviNS0_12handler_typeEb
                0x00000000      0x26c bn_hblank_effects_manager.o
 .rodata._ZN2bn22hblank_effects_manager12_GLOBAL__N_17_createEPKviNS0_12handler_typeEb
                0x00000000       0xa4 bn_hblank_effects_manager.o
 .text._ZN3_bn6assert9show_argsIJA23_ciA4_ciEEEvPKcS5_S5_iDpRKT_
                0x00000000       0x64 bn_hblank_effects_manager.o
 .rodata._ZN2bn22hblank_effects_manager6createEPKviiNS0_12handler_typeE.str1.4
                0x00000000       0x47 bn_hblank_effects_manager.o
 .text._ZN2bn22hblank_effects_manager6createEPKviiNS0_12handler_typeE
                0x00000000       0x58 bn_hblank_effects_manager.o
 .rodata._ZN2bn22hblank_effects_manager15create_optionalEPKviiNS0_12handler_typeE.str1.4
                0x00000000       0x10 bn_hblank_effects_manager.o
 .text._ZN2bn22hblank_effects_manager15create_optionalEPKviiNS0_12handler_typeE
                0x00000000       0x58 bn_hblank_effects_manager.o
 .rodata._ZN2bn22hblank_effects_manager14set_values_refEiPKvi.str1.4
                0x00000000        0xf bn_hblank_effects_manager.o
 .text._ZN2bn22hblank_effects_manager14set_values_refEiPKvi
                0x00000000       0x90 bn_hblank_effects_manager.o
 .rodata._ZN2bn36sprite_affine_mat_attributes_hbe_ptr18set_attributes_refERKNS_4spanIKNS_21affine_mat_attributesEEE.str1.4
                0x00000000       0xe7 bn_hblank_effects_manager.o
 .text._ZN2bn36sprite_affine_mat_attributes_hbe_ptr18set_attributes_refERKNS_4spanIKNS_21affine_mat_attributesEEE
                0x00000000       0xb0 bn_hblank_effects_manager.o
 .rodata._ZN2bn32affine_bg_mat_attributes_hbe_ptr18set_attributes_refERKNS_4spanIKNS_24affine_bg_mat_attributesEEE.str1.4
                0x00000000       0xef bn_hblank_effects_manager.o
 .text._ZN2bn32affine_bg_mat_attributes_hbe_ptr18set_attributes_refERKNS_4spanIKNS_24affine_bg_mat_attributesEEE
                0x00000000      0x104 bn_hblank_effects_manager.o
 .text._ZN2bn18green_swap_hbe_ptr6createERKNS_4spanIKbEE
                0x00000000       0x60 bn_hblank_effects_manager.o
 .text._ZN2bn37bg_palettes_transparent_color_hbe_ptr6createERKNS_4spanIKNS_5colorEEE
                0x00000000       0x64 bn_hblank_effects_manager.o
 .text._ZN2bn22backdrop_color_hbe_ptr6createERKNS_4spanIKNS_5colorEEE
                0x00000000       0x64 bn_hblank_effects_manager.o
 .text._ZN2bn25mosaic_attributes_hbe_ptr6createERKNS_4spanIKNS_17mosaic_attributesEEE
                0x00000000       0x64 bn_hblank_effects_manager.o
 .text._ZN2bn30rect_window_boundaries_hbe_ptr17create_horizontalENS_11rect_windowERKNS_4spanIKSt4pairINS_7fixed_tILi12EEES5_EEE
                0x00000000       0x6c bn_hblank_effects_manager.o
 .text._ZN2bn30rect_window_boundaries_hbe_ptr15create_verticalENS_11rect_windowERKNS_4spanIKSt4pairINS_7fixed_tILi12EEES5_EEE
                0x00000000       0x6c bn_hblank_effects_manager.o
 .text._ZN2bn29regular_bg_attributes_hbe_ptr6createENS_14regular_bg_ptrERKNS_4spanIKNS_21regular_bg_attributesEEE
                0x00000000       0x84 bn_hblank_effects_manager.o
 .text._ZN2bn28affine_bg_attributes_hbe_ptr6createENS_13affine_bg_ptrERKNS_4spanIKNS_20affine_bg_attributesEEE
                0x00000000       0x70 bn_hblank_effects_manager.o
 .text._ZN2bn27regular_bg_position_hbe_ptr17create_horizontalENS_14regular_bg_ptrERKNS_4spanIKNS_7fixed_tILi12EEEEE
                0x00000000       0x70 bn_hblank_effects_manager.o
 .text._ZN2bn27regular_bg_position_hbe_ptr15create_verticalENS_14regular_bg_ptrERKNS_4spanIKNS_7fixed_tILi12EEEEE
                0x00000000       0x70 bn_hblank_effects_manager.o
 .text._ZN2bn32affine_bg_pivot_position_hbe_ptr17create_horizontalENS_13affine_bg_ptrERKNS_4spanIKNS_7fixed_tILi12EEEEE
                0x00000000       0x70 bn_hblank_effects_manager.o
 .text._ZN2bn32affine_bg_pivot_position_hbe_ptr15create_verticalENS_13affine_bg_ptrERKNS_4spanIKNS_7fixed_tILi12EEEEE
                0x00000000       0x70 bn_hblank_effects_manager.o
 .text._ZN2bn39sprite_affine_second_attributes_hbe_ptr6createENS_10sprite_ptrERKNS_4spanIKNS_31sprite_affine_second_attributesEEE
                0x00000000       0x70 bn_hblank_effects_manager.o
 .text._ZN2bn31sprite_first_attributes_hbe_ptr6createENS_10sprite_ptrERKNS_4spanIKNS_23sprite_first_attributesEEE
                0x00000000       0x70 bn_hblank_effects_manager.o
 .text._ZN2bn23sprite_position_hbe_ptr17create_horizontalENS_10sprite_ptrERKNS_4spanIKNS_7fixed_tILi12EEEEE
                0x00000000       0x70 bn_hblank_effects_manager.o
 .text._ZN2bn23sprite_position_hbe_ptr15create_verticalENS_10sprite_ptrERKNS_4spanIKNS_7fixed_tILi12EEEEE
                0x00000000       0x70 bn_hblank_effects_manager.o
 .text._ZN2bn40sprite_regular_second_attributes_hbe_ptr6createENS_10sprite_ptrERKNS_4spanIKNS_32sprite_regular_second_attributesEEE
                0x00000000       0x70 bn_hblank_effects_manager.o
 .text._ZN2bn31sprite_third_attributes_hbe_ptr6createENS_10sprite_ptrERKNS_4spanIKNS_23sprite_third_attributesEEE
                0x00000000       0x70 bn_hblank_effects_manager.o
 .text._ZN2bn18green_swap_hbe_ptr15create_optionalERKNS_4spanIKbEE
                0x00000000       0x6c bn_hblank_effects_manager.o
 .text._ZN2bn29affine_bg_pa_register_hbe_ptr6createENS_13affine_bg_ptrERKNS_4spanIKNS_24affine_bg_mat_attributesEEE
                0x00000000       0x88 bn_hblank_effects_manager.o
 .text._ZN2bn29affine_bg_pa_register_hbe_ptr6createENS_13affine_bg_ptrERKNS_4spanIKsEE
                0x00000000       0x70 bn_hblank_effects_manager.o
 .text._ZN2bn29affine_bg_pb_register_hbe_ptr6createENS_13affine_bg_ptrERKNS_4spanIKNS_24affine_bg_mat_attributesEEE
                0x00000000       0x88 bn_hblank_effects_manager.o
 .text._ZN2bn29affine_bg_pb_register_hbe_ptr6createENS_13affine_bg_ptrERKNS_4spanIKsEE
                0x00000000       0x70 bn_hblank_effects_manager.o
 .text._ZN2bn29affine_bg_pc_register_hbe_ptr6createENS_13affine_bg_ptrERKNS_4spanIKNS_24affine_bg_mat_attributesEEE
                0x00000000       0x88 bn_hblank_effects_manager.o
 .text._ZN2bn29affine_bg_pc_register_hbe_ptr6createENS_13affine_bg_ptrERKNS_4spanIKsEE
                0x00000000       0x70 bn_hblank_effects_manager.o
 .text._ZN2bn29affine_bg_pd_register_hbe_ptr6createENS_13affine_bg_ptrERKNS_4spanIKNS_24affine_bg_mat_attributesEEE
                0x00000000       0x88 bn_hblank_effects_manager.o
 .text._ZN2bn29affine_bg_pd_register_hbe_ptr6createENS_13affine_bg_ptrERKNS_4spanIKsEE
                0x00000000       0x70 bn_hblank_effects_manager.o
 .text._ZN2bn29affine_bg_dx_register_hbe_ptr6createENS_13affine_bg_ptrERKNS_4spanIKNS_24affine_bg_mat_attributesEEE
                0x00000000       0x88 bn_hblank_effects_manager.o
 .text._ZN2bn29affine_bg_dx_register_hbe_ptr6createENS_13affine_bg_ptrERKNS_4spanIKiEE
                0x00000000       0x70 bn_hblank_effects_manager.o
 .text._ZN2bn29affine_bg_dy_register_hbe_ptr6createENS_13affine_bg_ptrERKNS_4spanIKNS_24affine_bg_mat_attributesEEE
                0x00000000       0x88 bn_hblank_effects_manager.o
 .text._ZN2bn29affine_bg_dy_register_hbe_ptr6createENS_13affine_bg_ptrERKNS_4spanIKiEE
                0x00000000       0x70 bn_hblank_effects_manager.o
 .text._ZN2bn37sprite_affine_mat_pa_register_hbe_ptr6createENS_21sprite_affine_mat_ptrERKNS_4spanIKNS_21affine_mat_attributesEEE
                0x00000000       0x8c bn_hblank_effects_manager.o
 .text._ZN2bn37sprite_affine_mat_pa_register_hbe_ptr6createENS_21sprite_affine_mat_ptrERKNS_4spanIKsEE
                0x00000000       0x78 bn_hblank_effects_manager.o
 .text._ZN2bn37sprite_affine_mat_pb_register_hbe_ptr6createENS_21sprite_affine_mat_ptrERKNS_4spanIKNS_21affine_mat_attributesEEE
                0x00000000       0x8c bn_hblank_effects_manager.o
 .text._ZN2bn37sprite_affine_mat_pb_register_hbe_ptr6createENS_21sprite_affine_mat_ptrERKNS_4spanIKsEE
                0x00000000       0x78 bn_hblank_effects_manager.o
 .text._ZN2bn37sprite_affine_mat_pc_register_hbe_ptr6createENS_21sprite_affine_mat_ptrERKNS_4spanIKNS_21affine_mat_attributesEEE
                0x00000000       0x8c bn_hblank_effects_manager.o
 .text._ZN2bn37sprite_affine_mat_pc_register_hbe_ptr6createENS_21sprite_affine_mat_ptrERKNS_4spanIKsEE
                0x00000000       0x78 bn_hblank_effects_manager.o
 .text._ZN2bn37sprite_affine_mat_pd_register_hbe_ptr6createENS_21sprite_affine_mat_ptrERKNS_4spanIKNS_21affine_mat_attributesEEE
                0x00000000       0x8c bn_hblank_effects_manager.o
 .text._ZN2bn37sprite_affine_mat_pd_register_hbe_ptr6createENS_21sprite_affine_mat_ptrERKNS_4spanIKsEE
                0x00000000       0x78 bn_hblank_effects_manager.o
 .text._ZN2bn37bg_palettes_transparent_color_hbe_ptr15create_optionalERKNS_4spanIKNS_5colorEEE
                0x00000000       0x74 bn_hblank_effects_manager.o
 .text._ZN2bn22backdrop_color_hbe_ptr15create_optionalERKNS_4spanIKNS_5colorEEE
                0x00000000       0x74 bn_hblank_effects_manager.o
 .text._ZN2bn25mosaic_attributes_hbe_ptr15create_optionalERKNS_4spanIKNS_17mosaic_attributesEEE
                0x00000000       0x74 bn_hblank_effects_manager.o
 .rodata._ZN2bn40blending_transparency_attributes_hbe_ptr6createERKNS_4spanIKNS_32blending_transparency_attributesEEE.str1.4
                0x00000000       0x32 bn_hblank_effects_manager.o
 .text._ZN2bn40blending_transparency_attributes_hbe_ptr6createERKNS_4spanIKNS_32blending_transparency_attributesEEE
                0x00000000       0x8c bn_hblank_effects_manager.o
 .text._ZN2bn40blending_transparency_attributes_hbe_ptr15create_optionalERKNS_4spanIKNS_32blending_transparency_attributesEEE
                0x00000000       0x98 bn_hblank_effects_manager.o
 .rodata._ZN2bn24bg_palette_color_hbe_ptr6createENS_14bg_palette_ptrEiRKNS_4spanIKNS_5colorEEE.str1.4
                0x00000000       0x76 bn_hblank_effects_manager.o
 .text._ZN2bn24bg_palette_color_hbe_ptr6createENS_14bg_palette_ptrEiRKNS_4spanIKNS_5colorEEE
                0x00000000       0xcc bn_hblank_effects_manager.o
 .rodata._ZN2bn28sprite_palette_color_hbe_ptr6createENS_18sprite_palette_ptrEiRKNS_4spanIKNS_5colorEEE.str1.4
                0x00000000       0x26 bn_hblank_effects_manager.o
 .text._ZN2bn28sprite_palette_color_hbe_ptr6createENS_18sprite_palette_ptrEiRKNS_4spanIKNS_5colorEEE
                0x00000000       0xcc bn_hblank_effects_manager.o
 .text._ZN2bn18green_swap_hbe_ptr14set_states_refERKNS_4spanIKbEE
                0x00000000       0x98 bn_hblank_effects_manager.o
 .text._ZN2bn32affine_bg_pivot_position_hbe_ptr14set_deltas_refERKNS_4spanIKNS_7fixed_tILi12EEEEE
                0x00000000       0x9c bn_hblank_effects_manager.o
 .text._ZN2bn23sprite_position_hbe_ptr14set_deltas_refERKNS_4spanIKNS_7fixed_tILi12EEEEE
                0x00000000       0x9c bn_hblank_effects_manager.o
 .text._ZN2bn37bg_palettes_transparent_color_hbe_ptr14set_colors_refERKNS_4spanIKNS_5colorEEE
                0x00000000       0x9c bn_hblank_effects_manager.o
 .text._ZN2bn22backdrop_color_hbe_ptr14set_colors_refERKNS_4spanIKNS_5colorEEE
                0x00000000       0x9c bn_hblank_effects_manager.o
 .text._ZN2bn28sprite_palette_color_hbe_ptr14set_colors_refERKNS_4spanIKNS_5colorEEE
                0x00000000       0x9c bn_hblank_effects_manager.o
 .text._ZN2bn24bg_palette_color_hbe_ptr14set_colors_refERKNS_4spanIKNS_5colorEEE
                0x00000000       0x9c bn_hblank_effects_manager.o
 .text._ZN2bn27blending_fade_alpha_hbe_ptr14set_alphas_refERKNS_4spanIKNS_19blending_fade_alphaEEE
                0x00000000       0x9c bn_hblank_effects_manager.o
 .text._ZN2bn40blending_transparency_attributes_hbe_ptr18set_attributes_refERKNS_4spanIKNS_32blending_transparency_attributesEEE
                0x00000000       0x9c bn_hblank_effects_manager.o
 .text._ZN2bn25mosaic_attributes_hbe_ptr18set_attributes_refERKNS_4spanIKNS_17mosaic_attributesEEE
                0x00000000       0x9c bn_hblank_effects_manager.o
 .text._ZN2bn30rect_window_boundaries_hbe_ptr14set_deltas_refERKNS_4spanIKSt4pairINS_7fixed_tILi12EEES4_EEE
                0x00000000       0x9c bn_hblank_effects_manager.o
 .text._ZN2bn29regular_bg_attributes_hbe_ptr18set_attributes_refERKNS_4spanIKNS_21regular_bg_attributesEEE
                0x00000000       0xb0 bn_hblank_effects_manager.o
 .text._ZN2bn28affine_bg_attributes_hbe_ptr18set_attributes_refERKNS_4spanIKNS_20affine_bg_attributesEEE
                0x00000000       0x9c bn_hblank_effects_manager.o
 .text._ZN2bn27regular_bg_position_hbe_ptr14set_deltas_refERKNS_4spanIKNS_7fixed_tILi12EEEEE
                0x00000000       0x9c bn_hblank_effects_manager.o
 .text._ZN2bn39sprite_affine_second_attributes_hbe_ptr18set_attributes_refERKNS_4spanIKNS_31sprite_affine_second_attributesEEE
                0x00000000       0x9c bn_hblank_effects_manager.o
 .text._ZN2bn31sprite_first_attributes_hbe_ptr18set_attributes_refERKNS_4spanIKNS_23sprite_first_attributesEEE
                0x00000000       0x9c bn_hblank_effects_manager.o
 .text._ZN2bn40sprite_regular_second_attributes_hbe_ptr18set_attributes_refERKNS_4spanIKNS_32sprite_regular_second_attributesEEE
                0x00000000       0x9c bn_hblank_effects_manager.o
 .text._ZN2bn31sprite_third_attributes_hbe_ptr18set_attributes_refERKNS_4spanIKNS_23sprite_third_attributesEEE
                0x00000000       0x9c bn_hblank_effects_manager.o
 .text._ZN2bn29affine_bg_pa_register_hbe_ptr18set_attributes_refERKNS_4spanIKNS_24affine_bg_mat_attributesEEE
                0x00000000       0xdc bn_hblank_effects_manager.o
 .rodata._ZN2bn29affine_bg_pa_register_hbe_ptr14set_values_refERKNS_4spanIKsEE.str1.4
                0x00000000       0x16 bn_hblank_effects_manager.o
 .text._ZN2bn29affine_bg_pa_register_hbe_ptr14set_values_refERKNS_4spanIKsEE
                0x00000000       0xc0 bn_hblank_effects_manager.o
 .text._ZN2bn29affine_bg_pb_register_hbe_ptr18set_attributes_refERKNS_4spanIKNS_24affine_bg_mat_attributesEEE
                0x00000000       0xdc bn_hblank_effects_manager.o
 .text._ZN2bn29affine_bg_pb_register_hbe_ptr14set_values_refERKNS_4spanIKsEE
                0x00000000       0xc0 bn_hblank_effects_manager.o
 .text._ZN2bn29affine_bg_pc_register_hbe_ptr18set_attributes_refERKNS_4spanIKNS_24affine_bg_mat_attributesEEE
                0x00000000       0xdc bn_hblank_effects_manager.o
 .text._ZN2bn29affine_bg_pc_register_hbe_ptr14set_values_refERKNS_4spanIKsEE
                0x00000000       0xc0 bn_hblank_effects_manager.o
 .text._ZN2bn29affine_bg_pd_register_hbe_ptr18set_attributes_refERKNS_4spanIKNS_24affine_bg_mat_attributesEEE
                0x00000000       0xdc bn_hblank_effects_manager.o
 .text._ZN2bn29affine_bg_pd_register_hbe_ptr14set_values_refERKNS_4spanIKsEE
                0x00000000       0xc0 bn_hblank_effects_manager.o
 .text._ZN2bn29affine_bg_dx_register_hbe_ptr18set_attributes_refERKNS_4spanIKNS_24affine_bg_mat_attributesEEE
                0x00000000       0xdc bn_hblank_effects_manager.o
 .text._ZN2bn29affine_bg_dx_register_hbe_ptr14set_values_refERKNS_4spanIKiEE
                0x00000000       0xc0 bn_hblank_effects_manager.o
 .text._ZN2bn29affine_bg_dy_register_hbe_ptr18set_attributes_refERKNS_4spanIKNS_24affine_bg_mat_attributesEEE
                0x00000000       0xdc bn_hblank_effects_manager.o
 .text._ZN2bn29affine_bg_dy_register_hbe_ptr14set_values_refERKNS_4spanIKiEE
                0x00000000       0xc0 bn_hblank_effects_manager.o
 .text._ZN2bn37sprite_affine_mat_pa_register_hbe_ptr18set_attributes_refERKNS_4spanIKNS_21affine_mat_attributesEEE
                0x00000000       0xdc bn_hblank_effects_manager.o
 .text._ZN2bn37sprite_affine_mat_pa_register_hbe_ptr14set_values_refERKNS_4spanIKsEE
                0x00000000       0xc0 bn_hblank_effects_manager.o
 .text._ZN2bn37sprite_affine_mat_pb_register_hbe_ptr18set_attributes_refERKNS_4spanIKNS_21affine_mat_attributesEEE
                0x00000000       0xdc bn_hblank_effects_manager.o
 .text._ZN2bn37sprite_affine_mat_pb_register_hbe_ptr14set_values_refERKNS_4spanIKsEE
                0x00000000       0xc0 bn_hblank_effects_manager.o
 .text._ZN2bn37sprite_affine_mat_pc_register_hbe_ptr18set_attributes_refERKNS_4spanIKNS_21affine_mat_attributesEEE
                0x00000000       0xdc bn_hblank_effects_manager.o
 .text._ZN2bn37sprite_affine_mat_pc_register_hbe_ptr14set_values_refERKNS_4spanIKsEE
                0x00000000       0xc0 bn_hblank_effects_manager.o
 .text._ZN2bn37sprite_affine_mat_pd_register_hbe_ptr18set_attributes_refERKNS_4spanIKNS_21affine_mat_attributesEEE
                0x00000000       0xdc bn_hblank_effects_manager.o
 .text._ZN2bn37sprite_affine_mat_pd_register_hbe_ptr14set_values_refERKNS_4spanIKsEE
                0x00000000       0xc0 bn_hblank_effects_manager.o
 .rodata._ZN2bn27blending_fade_alpha_hbe_ptr6createERKNS_4spanIKNS_19blending_fade_alphaEEE.str1.4
                0x00000000       0x25 bn_hblank_effects_manager.o
 .text._ZN2bn27blending_fade_alpha_hbe_ptr6createERKNS_4spanIKNS_19blending_fade_alphaEEE
                0x00000000       0x98 bn_hblank_effects_manager.o
 .text._ZN2bn27blending_fade_alpha_hbe_ptr15create_optionalERKNS_4spanIKNS_19blending_fade_alphaEEE
                0x00000000       0xa4 bn_hblank_effects_manager.o
 .text._ZN3_bn6assert9show_argsIA15_cEEvPKcS4_S4_iRKT_
                0x00000000       0x48 bn_hblank_effects_manager.o
 .text._ZN2bn22hblank_effects_manager15decrease_usagesEi.part.0
                0x00000000      0x154 bn_hblank_effects_manager.o
 .text._ZN2bn22hblank_effects_manager15decrease_usagesEi
                0x00000000       0x24 bn_hblank_effects_manager.o
 .text._ZN2bn7hbe_ptrD2Ev
                0x00000000       0x34 bn_hblank_effects_manager.o
 .text._ZN2bn7hbe_ptraSERKS0_
                0x00000000       0x50 bn_hblank_effects_manager.o
 .text._ZN2bn30rect_window_boundaries_hbe_ptr26create_horizontal_optionalENS_11rect_windowERKNS_4spanIKSt4pairINS_7fixed_tILi12EEES5_EEE
                0x00000000       0x80 bn_hblank_effects_manager.o
 .text._ZN2bn30rect_window_boundaries_hbe_ptr24create_vertical_optionalENS_11rect_windowERKNS_4spanIKSt4pairINS_7fixed_tILi12EEES5_EEE
                0x00000000       0x80 bn_hblank_effects_manager.o
 .text._ZN2bn36sprite_affine_mat_attributes_hbe_ptr6createERKNS_21sprite_affine_mat_ptrERKNS_4spanIKNS_21affine_mat_attributesEEE
                0x00000000      0x300 bn_hblank_effects_manager.o
 .text._ZN2bn37sprite_affine_mat_pa_register_hbe_ptr15create_optionalENS_21sprite_affine_mat_ptrERKNS_4spanIKNS_21affine_mat_attributesEEE
                0x00000000       0xd8 bn_hblank_effects_manager.o
 .text._ZN2bn37sprite_affine_mat_pa_register_hbe_ptr15create_optionalENS_21sprite_affine_mat_ptrERKNS_4spanIKsEE
                0x00000000       0xc0 bn_hblank_effects_manager.o
 .text._ZN2bn37sprite_affine_mat_pb_register_hbe_ptr15create_optionalENS_21sprite_affine_mat_ptrERKNS_4spanIKNS_21affine_mat_attributesEEE
                0x00000000       0xd8 bn_hblank_effects_manager.o
 .text._ZN2bn37sprite_affine_mat_pb_register_hbe_ptr15create_optionalENS_21sprite_affine_mat_ptrERKNS_4spanIKsEE
                0x00000000       0xc0 bn_hblank_effects_manager.o
 .text._ZN2bn37sprite_affine_mat_pc_register_hbe_ptr15create_optionalENS_21sprite_affine_mat_ptrERKNS_4spanIKNS_21affine_mat_attributesEEE
                0x00000000       0xd8 bn_hblank_effects_manager.o
 .text._ZN2bn37sprite_affine_mat_pc_register_hbe_ptr15create_optionalENS_21sprite_affine_mat_ptrERKNS_4spanIKsEE
                0x00000000       0xc0 bn_hblank_effects_manager.o
 .text._ZN2bn37sprite_affine_mat_pd_register_hbe_ptr15create_optionalENS_21sprite_affine_mat_ptrERKNS_4spanIKNS_21affine_mat_attributesEEE
                0x00000000       0xd8 bn_hblank_effects_manager.o
 .text._ZN2bn37sprite_affine_mat_pd_register_hbe_ptr15create_optionalENS_21sprite_affine_mat_ptrERKNS_4spanIKsEE
                0x00000000       0xc0 bn_hblank_effects_manager.o
 .text._ZN2bn29regular_bg_attributes_hbe_ptr15create_optionalENS_14regular_bg_ptrERKNS_4spanIKNS_21regular_bg_attributesEEE
                0x00000000       0xcc bn_hblank_effects_manager.o
 .text._ZN2bn28affine_bg_attributes_hbe_ptr15create_optionalENS_13affine_bg_ptrERKNS_4spanIKNS_20affine_bg_attributesEEE
                0x00000000       0xb8 bn_hblank_effects_manager.o
 .text._ZN2bn27regular_bg_position_hbe_ptr24create_vertical_optionalENS_14regular_bg_ptrERKNS_4spanIKNS_7fixed_tILi12EEEEE
                0x00000000       0xb8 bn_hblank_effects_manager.o
 .text._ZN2bn32affine_bg_pivot_position_hbe_ptr24create_vertical_optionalENS_13affine_bg_ptrERKNS_4spanIKNS_7fixed_tILi12EEEEE
                0x00000000       0xb8 bn_hblank_effects_manager.o
 .text._ZN2bn39sprite_affine_second_attributes_hbe_ptr15create_optionalENS_10sprite_ptrERKNS_4spanIKNS_31sprite_affine_second_attributesEEE
                0x00000000       0xb8 bn_hblank_effects_manager.o
 .text._ZN2bn31sprite_first_attributes_hbe_ptr15create_optionalENS_10sprite_ptrERKNS_4spanIKNS_23sprite_first_attributesEEE
                0x00000000       0xb8 bn_hblank_effects_manager.o
 .text._ZN2bn23sprite_position_hbe_ptr24create_vertical_optionalENS_10sprite_ptrERKNS_4spanIKNS_7fixed_tILi12EEEEE
                0x00000000       0xb8 bn_hblank_effects_manager.o
 .text._ZN2bn40sprite_regular_second_attributes_hbe_ptr15create_optionalENS_10sprite_ptrERKNS_4spanIKNS_32sprite_regular_second_attributesEEE
                0x00000000       0xb8 bn_hblank_effects_manager.o
 .text._ZN2bn31sprite_third_attributes_hbe_ptr15create_optionalENS_10sprite_ptrERKNS_4spanIKNS_23sprite_third_attributesEEE
                0x00000000       0xb8 bn_hblank_effects_manager.o
 .text._ZN2bn27regular_bg_position_hbe_ptr26create_horizontal_optionalENS_14regular_bg_ptrERKNS_4spanIKNS_7fixed_tILi12EEEEE
                0x00000000       0xb8 bn_hblank_effects_manager.o
 .text._ZN2bn32affine_bg_pivot_position_hbe_ptr26create_horizontal_optionalENS_13affine_bg_ptrERKNS_4spanIKNS_7fixed_tILi12EEEEE
                0x00000000       0xb8 bn_hblank_effects_manager.o
 .text._ZN2bn23sprite_position_hbe_ptr26create_horizontal_optionalENS_10sprite_ptrERKNS_4spanIKNS_7fixed_tILi12EEEEE
                0x00000000       0xb8 bn_hblank_effects_manager.o
 .text._ZN2bn29affine_bg_pa_register_hbe_ptr15create_optionalENS_13affine_bg_ptrERKNS_4spanIKNS_24affine_bg_mat_attributesEEE
                0x00000000       0xd4 bn_hblank_effects_manager.o
 .text._ZN2bn29affine_bg_pa_register_hbe_ptr15create_optionalENS_13affine_bg_ptrERKNS_4spanIKsEE
                0x00000000       0xb8 bn_hblank_effects_manager.o
 .text._ZN2bn29affine_bg_pb_register_hbe_ptr15create_optionalENS_13affine_bg_ptrERKNS_4spanIKNS_24affine_bg_mat_attributesEEE
                0x00000000       0xd4 bn_hblank_effects_manager.o
 .text._ZN2bn29affine_bg_pb_register_hbe_ptr15create_optionalENS_13affine_bg_ptrERKNS_4spanIKsEE
                0x00000000       0xb8 bn_hblank_effects_manager.o
 .text._ZN2bn29affine_bg_pc_register_hbe_ptr15create_optionalENS_13affine_bg_ptrERKNS_4spanIKNS_24affine_bg_mat_attributesEEE
                0x00000000       0xd4 bn_hblank_effects_manager.o
 .text._ZN2bn29affine_bg_pc_register_hbe_ptr15create_optionalENS_13affine_bg_ptrERKNS_4spanIKsEE
                0x00000000       0xb8 bn_hblank_effects_manager.o
 .text._ZN2bn29affine_bg_pd_register_hbe_ptr15create_optionalENS_13affine_bg_ptrERKNS_4spanIKNS_24affine_bg_mat_attributesEEE
                0x00000000       0xd4 bn_hblank_effects_manager.o
 .text._ZN2bn29affine_bg_pd_register_hbe_ptr15create_optionalENS_13affine_bg_ptrERKNS_4spanIKsEE
                0x00000000       0xb8 bn_hblank_effects_manager.o
 .text._ZN2bn29affine_bg_dx_register_hbe_ptr15create_optionalENS_13affine_bg_ptrERKNS_4spanIKNS_24affine_bg_mat_attributesEEE
                0x00000000       0xd4 bn_hblank_effects_manager.o
 .text._ZN2bn29affine_bg_dx_register_hbe_ptr15create_optionalENS_13affine_bg_ptrERKNS_4spanIKiEE
                0x00000000       0xb8 bn_hblank_effects_manager.o
 .text._ZN2bn29affine_bg_dy_register_hbe_ptr15create_optionalENS_13affine_bg_ptrERKNS_4spanIKNS_24affine_bg_mat_attributesEEE
                0x00000000       0xd4 bn_hblank_effects_manager.o
 .text._ZN2bn29affine_bg_dy_register_hbe_ptr15create_optionalENS_13affine_bg_ptrERKNS_4spanIKiEE
                0x00000000       0xb8 bn_hblank_effects_manager.o
 .text._ZN2bn32affine_bg_mat_attributes_hbe_ptr6createERKNS_13affine_bg_ptrERKNS_4spanIKNS_24affine_bg_mat_attributesEEE
                0x00000000      0x400 bn_hblank_effects_manager.o
 .text._ZN2bn24bg_palette_color_hbe_ptr15create_optionalENS_14bg_palette_ptrEiRKNS_4spanIKNS_5colorEEE
                0x00000000      0x11c bn_hblank_effects_manager.o
 .text._ZN2bn28sprite_palette_color_hbe_ptr15create_optionalENS_18sprite_palette_ptrEiRKNS_4spanIKNS_5colorEEE
                0x00000000      0x11c bn_hblank_effects_manager.o
 .text._ZN2bn36sprite_affine_mat_attributes_hbe_ptr15create_optionalERKNS_21sprite_affine_mat_ptrERKNS_4spanIKNS_21affine_mat_attributesEEE
                0x00000000      0x40c bn_hblank_effects_manager.o
 .text._ZN2bn32affine_bg_mat_attributes_hbe_ptr15create_optionalERKNS_13affine_bg_ptrERKNS_4spanIKNS_24affine_bg_mat_attributesEEE
                0x00000000      0x524 bn_hblank_effects_manager.o
 .text._ZN3_bn6assert9show_argsIA39_ciEEvPKcS4_S4_iRKT_RKT0_
                0x00000000       0x54 bn_hblank_effects_manager.o
 .rodata._ZNK2bn24bg_palette_color_hbe_ptr10colors_refEv.str1.4
                0x00000000       0x3f bn_hblank_effects_manager.o
 .text._ZNK2bn24bg_palette_color_hbe_ptr10colors_refEv
                0x00000000       0x58 bn_hblank_effects_manager.o
 .text._ZNK2bn27blending_fade_alpha_hbe_ptr10alphas_refEv
                0x00000000       0x5c bn_hblank_effects_manager.o
 .text._ZNK2bn40blending_transparency_attributes_hbe_ptr14attributes_refEv
                0x00000000       0x5c bn_hblank_effects_manager.o
 .text._ZNK2bn18green_swap_hbe_ptr10states_refEv
                0x00000000       0x54 bn_hblank_effects_manager.o
 .text._ZNK2bn25mosaic_attributes_hbe_ptr14attributes_refEv
                0x00000000       0x5c bn_hblank_effects_manager.o
 .text._ZNK2bn30rect_window_boundaries_hbe_ptr10deltas_refEv
                0x00000000       0x5c bn_hblank_effects_manager.o
 .text._ZNK2bn29regular_bg_attributes_hbe_ptr14attributes_refEv
                0x00000000       0x58 bn_hblank_effects_manager.o
 .text._ZNK2bn28affine_bg_attributes_hbe_ptr14attributes_refEv
                0x00000000       0x5c bn_hblank_effects_manager.o
 .text._ZNK2bn27regular_bg_position_hbe_ptr10deltas_refEv
                0x00000000       0x5c bn_hblank_effects_manager.o
 .rodata._ZNK2bn29affine_bg_dy_register_hbe_ptr14attributes_refEv.str1.4
                0x00000000        0xf bn_hblank_effects_manager.o
 .text._ZNK2bn29affine_bg_dy_register_hbe_ptr14attributes_refEv
                0x00000000       0x7c bn_hblank_effects_manager.o
 .rodata._ZNK2bn37sprite_affine_mat_pd_register_hbe_ptr10values_refEv.str1.4
                0x00000000        0xb bn_hblank_effects_manager.o
 .text._ZNK2bn37sprite_affine_mat_pd_register_hbe_ptr10values_refEv
                0x00000000       0x78 bn_hblank_effects_manager.o
 .text._ZNK2bn29affine_bg_dy_register_hbe_ptr10values_refEv
                0x00000000       0x7c bn_hblank_effects_manager.o
 .text._ZNK2bn37sprite_affine_mat_pd_register_hbe_ptr14attributes_refEv
                0x00000000       0x7c bn_hblank_effects_manager.o
 .text._ZNK2bn39sprite_affine_second_attributes_hbe_ptr14attributes_refEv
                0x00000000       0x5c bn_hblank_effects_manager.o
 .text._ZNK2bn31sprite_first_attributes_hbe_ptr14attributes_refEv
                0x00000000       0x5c bn_hblank_effects_manager.o
 .text._ZNK2bn40sprite_regular_second_attributes_hbe_ptr14attributes_refEv
                0x00000000       0x5c bn_hblank_effects_manager.o
 .text._ZNK2bn31sprite_third_attributes_hbe_ptr14attributes_refEv
                0x00000000       0x5c bn_hblank_effects_manager.o
 .text._ZNK2bn29affine_bg_dx_register_hbe_ptr10values_refEv
                0x00000000       0x7c bn_hblank_effects_manager.o
 .text._ZNK2bn37sprite_affine_mat_pa_register_hbe_ptr14attributes_refEv
                0x00000000       0x7c bn_hblank_effects_manager.o
 .text._ZNK2bn37sprite_affine_mat_pb_register_hbe_ptr14attributes_refEv
                0x00000000       0x7c bn_hblank_effects_manager.o
 .text._ZNK2bn37sprite_affine_mat_pc_register_hbe_ptr14attributes_refEv
                0x00000000       0x7c bn_hblank_effects_manager.o
 .text._ZNK2bn29affine_bg_pa_register_hbe_ptr14attributes_refEv
                0x00000000       0x7c bn_hblank_effects_manager.o
 .text._ZNK2bn29affine_bg_pb_register_hbe_ptr14attributes_refEv
                0x00000000       0x7c bn_hblank_effects_manager.o
 .text._ZNK2bn29affine_bg_pc_register_hbe_ptr14attributes_refEv
                0x00000000       0x7c bn_hblank_effects_manager.o
 .text._ZNK2bn29affine_bg_pd_register_hbe_ptr14attributes_refEv
                0x00000000       0x7c bn_hblank_effects_manager.o
 .text._ZNK2bn29affine_bg_dx_register_hbe_ptr14attributes_refEv
                0x00000000       0x7c bn_hblank_effects_manager.o
 .text._ZNK2bn32affine_bg_pivot_position_hbe_ptr10deltas_refEv
                0x00000000       0x5c bn_hblank_effects_manager.o
 .text._ZNK2bn23sprite_position_hbe_ptr10deltas_refEv
                0x00000000       0x5c bn_hblank_effects_manager.o
 .text._ZNK2bn29affine_bg_pa_register_hbe_ptr10values_refEv
                0x00000000       0x78 bn_hblank_effects_manager.o
 .text._ZNK2bn29affine_bg_pb_register_hbe_ptr10values_refEv
                0x00000000       0x78 bn_hblank_effects_manager.o
 .text._ZNK2bn29affine_bg_pc_register_hbe_ptr10values_refEv
                0x00000000       0x78 bn_hblank_effects_manager.o
 .text._ZNK2bn29affine_bg_pd_register_hbe_ptr10values_refEv
                0x00000000       0x78 bn_hblank_effects_manager.o
 .text._ZNK2bn37sprite_affine_mat_pa_register_hbe_ptr10values_refEv
                0x00000000       0x78 bn_hblank_effects_manager.o
 .text._ZNK2bn37sprite_affine_mat_pb_register_hbe_ptr10values_refEv
                0x00000000       0x78 bn_hblank_effects_manager.o
 .text._ZNK2bn37sprite_affine_mat_pc_register_hbe_ptr10values_refEv
                0x00000000       0x78 bn_hblank_effects_manager.o
 .text._ZNK2bn32affine_bg_mat_attributes_hbe_ptr14attributes_refEv
                0x00000000       0x7c bn_hblank_effects_manager.o
 .text._ZNK2bn36sprite_affine_mat_attributes_hbe_ptr14attributes_refEv
                0x00000000       0x7c bn_hblank_effects_manager.o
 .text._ZNK2bn37bg_palettes_transparent_color_hbe_ptr10colors_refEv
                0x00000000       0x58 bn_hblank_effects_manager.o
 .text._ZNK2bn22backdrop_color_hbe_ptr10colors_refEv
                0x00000000       0x58 bn_hblank_effects_manager.o
 .text._ZNK2bn28sprite_palette_color_hbe_ptr10colors_refEv
                0x00000000       0x58 bn_hblank_effects_manager.o
 .group         0x00000000        0xc bn_hdma_manager.o
 .text          0x00000000        0x0 bn_hdma_manager.o
 .data          0x00000000        0x0 bn_hdma_manager.o
 .bss           0x00000000        0x0 bn_hdma_manager.o
 .text._ZN2bn4hdma7runningEv
                0x00000000       0x28 bn_hdma_manager.o
 .text._ZN2bn4hdma4stopEv
                0x00000000       0x28 bn_hdma_manager.o
 .text._ZN2bn4hdma21high_priority_runningEv
                0x00000000       0x28 bn_hdma_manager.o
 .text._ZN2bn4hdma18high_priority_stopEv
                0x00000000       0x28 bn_hdma_manager.o
 .text._ZN2bn12hdma_manager6enableEv
                0x00000000       0xd0 bn_hdma_manager.o
 .text._ZN2bn12hdma_manager20low_priority_runningEv
                0x00000000       0x28 bn_hdma_manager.o
 .text._ZN2bn12hdma_manager18low_priority_startERKtiRt
                0x00000000       0x30 bn_hdma_manager.o
 .text._ZN2bn12hdma_manager17low_priority_stopEv
                0x00000000       0x28 bn_hdma_manager.o
 .text._ZN2bn12hdma_manager21high_priority_runningEv
                0x00000000       0x28 bn_hdma_manager.o
 .text._ZN2bn12hdma_manager19high_priority_startERKtiRt
                0x00000000       0x30 bn_hdma_manager.o
 .text._ZN2bn12hdma_manager18high_priority_stopEv
                0x00000000       0x28 bn_hdma_manager.o
 .text._ZN3_bn6assert9show_argsIA19_ciEEvPKcS4_S4_iRKT_RKT0_
                0x00000000       0x54 bn_hdma_manager.o
 .rodata._ZN2bn4hdma5startERKtiRt.str1.4
                0x00000000       0x3b bn_hdma_manager.o
 .text._ZN2bn4hdma5startERKtiRt
                0x00000000       0x5c bn_hdma_manager.o
 .rodata._ZN2bn4hdma19high_priority_startERKtiRt.str1.4
                0x00000000       0x14 bn_hdma_manager.o
 .text._ZN2bn4hdma19high_priority_startERKtiRt
                0x00000000       0x60 bn_hdma_manager.o
 .group         0x00000000        0xc bn_keypad_manager.o
 .group         0x00000000        0xc bn_keypad_manager.o
 .group         0x00000000        0xc bn_keypad_manager.o
 .group         0x00000000        0xc bn_keypad_manager.o
 .text          0x00000000        0x0 bn_keypad_manager.o
 .data          0x00000000        0x0 bn_keypad_manager.o
 .bss           0x00000000        0x0 bn_keypad_manager.o
 .text._ZN2bn6keypad4heldENS0_8key_typeE
                0x00000000       0x10 bn_keypad_manager.o
 .text._ZN2bn6keypad7pressedENS0_8key_typeE
                0x00000000       0x10 bn_keypad_manager.o
 .text._ZN2bn6keypad8releasedENS0_8key_typeE
                0x00000000       0x10 bn_keypad_manager.o
 .text._ZN2bn6keypad6a_heldEv
                0x00000000       0x10 bn_keypad_manager.o
 .text._ZN2bn6keypad10a_releasedEv
                0x00000000       0x10 bn_keypad_manager.o
 .text._ZN2bn6keypad6b_heldEv
                0x00000000       0x10 bn_keypad_manager.o
 .text._ZN2bn6keypad10b_releasedEv
                0x00000000       0x10 bn_keypad_manager.o
 .text._ZN2bn6keypad11select_heldEv
                0x00000000       0x10 bn_keypad_manager.o
 .text._ZN2bn6keypad15select_releasedEv
                0x00000000       0x10 bn_keypad_manager.o
 .text._ZN2bn6keypad10start_heldEv
                0x00000000       0x10 bn_keypad_manager.o
 .text._ZN2bn6keypad13start_pressedEv
                0x00000000       0x10 bn_keypad_manager.o
 .text._ZN2bn6keypad14start_releasedEv
                0x00000000       0x10 bn_keypad_manager.o
 .text._ZN2bn6keypad10right_heldEv
                0x00000000       0x10 bn_keypad_manager.o
 .text._ZN2bn6keypad13right_pressedEv
                0x00000000       0x10 bn_keypad_manager.o
 .text._ZN2bn6keypad14right_releasedEv
                0x00000000       0x10 bn_keypad_manager.o
 .text._ZN2bn6keypad9left_heldEv
                0x00000000       0x10 bn_keypad_manager.o
 .text._ZN2bn6keypad12left_pressedEv
                0x00000000       0x10 bn_keypad_manager.o
 .text._ZN2bn6keypad13left_releasedEv
                0x00000000       0x10 bn_keypad_manager.o
 .text._ZN2bn6keypad7up_heldEv
                0x00000000       0x10 bn_keypad_manager.o
 .text._ZN2bn6keypad10up_pressedEv
                0x00000000       0x10 bn_keypad_manager.o
 .text._ZN2bn6keypad11up_releasedEv
                0x00000000       0x10 bn_keypad_manager.o
 .text._ZN2bn6keypad9down_heldEv
                0x00000000        0xc bn_keypad_manager.o
 .text._ZN2bn6keypad12down_pressedEv
                0x00000000        0xc bn_keypad_manager.o
 .text._ZN2bn6keypad13down_releasedEv
                0x00000000        0xc bn_keypad_manager.o
 .text._ZN2bn6keypad6r_heldEv
                0x00000000       0x10 bn_keypad_manager.o
 .text._ZN2bn6keypad9r_pressedEv
                0x00000000       0x10 bn_keypad_manager.o
 .text._ZN2bn6keypad10r_releasedEv
                0x00000000       0x10 bn_keypad_manager.o
 .text._ZN2bn6keypad6l_heldEv
                0x00000000       0x10 bn_keypad_manager.o
 .text._ZN2bn6keypad9l_pressedEv
                0x00000000       0x10 bn_keypad_manager.o
 .text._ZN2bn6keypad10l_releasedEv
                0x00000000       0x10 bn_keypad_manager.o
 .text._ZN2bn6keypad8any_heldEv
                0x00000000       0x10 bn_keypad_manager.o
 .text._ZN2bn6keypad11any_pressedEv
                0x00000000       0x10 bn_keypad_manager.o
 .text._ZN2bn6keypad12any_releasedEv
                0x00000000       0x10 bn_keypad_manager.o
 .text._ZN2bn14keypad_manager4heldENS_6keypad8key_typeE
                0x00000000       0x10 bn_keypad_manager.o
 .text._ZN2bn14keypad_manager7pressedENS_6keypad8key_typeE
                0x00000000       0x10 bn_keypad_manager.o
 .text._ZN2bn14keypad_manager8releasedENS_6keypad8key_typeE
                0x00000000       0x10 bn_keypad_manager.o
 .text._ZN2bn14keypad_manager8any_heldEv
                0x00000000       0x10 bn_keypad_manager.o
 .text._ZN2bn14keypad_manager11any_pressedEv
                0x00000000       0x10 bn_keypad_manager.o
 .text._ZN2bn14keypad_manager12any_releasedEv
                0x00000000       0x10 bn_keypad_manager.o
 .text._ZN3_bn6assert9show_argsIJA19_ciA4_ciEEEvPKcS5_S5_iDpRKT_
                0x00000000       0x64 bn_keypad_manager.o
 .text._ZN3_bn6assert9show_argsIJA12_ciA4_ciEEEvPKcS5_S5_iDpRKT_
                0x00000000       0x64 bn_keypad_manager.o
 .text._ZN3_bn6assert9show_argsIA24_ciEEvPKcS4_S4_iRKT_RKT0_
                0x00000000       0x54 bn_keypad_manager.o
 .rodata._ZN2bn14keypad_manager13set_interruptERKNS_4spanIKNS_6keypad8key_typeEEE.str1.4
                0x00000000       0x30 bn_keypad_manager.o
 .text._ZN2bn14keypad_manager13set_interruptERKNS_4spanIKNS_6keypad8key_typeEEE
                0x00000000       0x4c bn_keypad_manager.o
 .group         0x00000000        0xc bn_link_manager.o
 .group         0x00000000        0xc bn_link_manager.o
 .group         0x00000000        0xc bn_link_manager.o
 .group         0x00000000        0xc bn_link_manager.o
 .group         0x00000000        0xc bn_link_manager.o
 .group         0x00000000        0xc bn_link_manager.o
 .text          0x00000000        0x0 bn_link_manager.o
 .data          0x00000000        0x0 bn_link_manager.o
 .bss           0x00000000        0x0 bn_link_manager.o
 .text._ZN2bn4link10deactivateEv
                0x00000000        0xc bn_link_manager.o
 .text._ZN2bn12link_manager4sendEi
                0x00000000       0x10 bn_link_manager.o
 .text._ZN2bn12link_manager10deactivateEv
                0x00000000        0xc bn_link_manager.o
 .text._ZN2bn12link_manager6enableEv
                0x00000000       0x18 bn_link_manager.o
 .text._ZN3_bn6assert9show_argsIA13_ciEEvPKcS4_S4_iRKT_RKT0_
                0x00000000       0x54 bn_link_manager.o
 .text._ZN3_bn6assert9show_argsIA15_ciEEvPKcS4_S4_iRKT_RKT0_
                0x00000000       0x54 bn_link_manager.o
 .text._ZN3_bn6assert9show_argsIA28_ciEEvPKcS4_S4_iRKT_RKT0_
                0x00000000       0x54 bn_link_manager.o
 .text._ZN3_bn6assert9show_argsIJA23_ciA4_ciEEEvPKcS5_S5_iDpRKT_
                0x00000000       0x64 bn_link_manager.o
 .text._ZN3_bn6assert9show_argsIA23_ciEEvPKcS4_S4_iRKT_RKT0_
                0x00000000       0x54 bn_link_manager.o
 .rodata._ZN2bn4link4sendEi.str1.4
                0x00000000       0x5b bn_link_manager.o
 .text._ZN2bn4link4sendEi
                0x00000000       0x40 bn_link_manager.o
 .text._ZN3_bn6assert9show_argsIA15_cEEvPKcS4_S4_iRKT_
                0x00000000       0x48 bn_link_manager.o
 .rodata._ZN2bn12link_manager7receiveEv.str1.4
                0x00000000      0x13f bn_link_manager.o
 .text._ZN2bn12link_manager7receiveEv
                0x00000000      0x160 bn_link_manager.o
 .text._ZN2bn4link7receiveEv
                0x00000000       0x10 bn_link_manager.o
 .group         0x00000000        0xc bn_memory_manager.o
 .group         0x00000000        0xc bn_memory_manager.o
 .group         0x00000000        0xc bn_memory_manager.o
 .group         0x00000000        0xc bn_memory_manager.o
 .group         0x00000000        0xc bn_memory_manager.o
 .group         0x00000000        0xc bn_memory_manager.o
 .group         0x00000000        0xc bn_memory_manager.o
 .group         0x00000000        0xc bn_memory_manager.o
 .group         0x00000000        0xc bn_memory_manager.o
 .text          0x00000000        0x0 bn_memory_manager.o
 .data          0x00000000        0x0 bn_memory_manager.o
 .bss           0x00000000        0x0 bn_memory_manager.o
 .text._ZdlPv   0x00000000       0x18 bn_memory_manager.o
 .text._ZdlPvj  0x00000000       0x18 bn_memory_manager.o
 .text._ZdaPv   0x00000000       0x18 bn_memory_manager.o
 .text._ZdaPvj  0x00000000       0x18 bn_memory_manager.o
 .text._ZN3_bn6memory17unsafe_copy_bytesEPKviPv
                0x00000000       0x14 bn_memory_manager.o
 .text._ZN3_bn6memory22unsafe_copy_half_wordsEPKviPv
                0x00000000       0x14 bn_memory_manager.o
 .text._ZN3_bn6memory17unsafe_copy_wordsEPKviPv
                0x00000000       0x14 bn_memory_manager.o
 .text._ZN3_bn6memory18unsafe_clear_bytesEiPv
                0x00000000       0x14 bn_memory_manager.o
 .text._ZN3_bn6memory23unsafe_clear_half_wordsEiPv
                0x00000000       0x14 bn_memory_manager.o
 .text._ZN3_bn6memory18unsafe_clear_wordsEiPv
                0x00000000       0x14 bn_memory_manager.o
 .text._ZN2bn6memory11ewram_allocEi
                0x00000000       0x18 bn_memory_manager.o
 .text._ZN2bn6memory12ewram_callocEii
                0x00000000       0x18 bn_memory_manager.o
 .text._ZN2bn6memory13ewram_reallocEPvi
                0x00000000       0x18 bn_memory_manager.o
 .text._ZN2bn6memory10ewram_freeEPv
                0x00000000       0x18 bn_memory_manager.o
 .text._ZN2bn6memory16used_alloc_ewramEv
                0x00000000       0x10 bn_memory_manager.o
 .text._ZN2bn6memory21available_alloc_ewramEv
                0x00000000        0xc bn_memory_manager.o
 .text._ZN2bn6memory22log_alloc_ewram_statusEv
                0x00000000       0x14 bn_memory_manager.o
 .text._ZN2bn6memory16used_stack_iwramEv
                0x00000000       0x14 bn_memory_manager.o
 .text._ZN2bn6memory17used_static_iwramEv
                0x00000000       0x10 bn_memory_manager.o
 .text._ZN2bn6memory17used_static_ewramEv
                0x00000000       0x10 bn_memory_manager.o
 .text._ZN2bn6memory8used_romEv
                0x00000000       0x10 bn_memory_manager.o
 .text._ZN2bn6memory10fast_ewramEv
                0x00000000       0x18 bn_memory_manager.o
 .text._ZN2bn6mallocEi
                0x00000000       0x18 bn_memory_manager.o
 .text._ZN2bn6callocEii
                0x00000000       0x18 bn_memory_manager.o
 .text._ZN2bn7reallocEPvi
                0x00000000       0x18 bn_memory_manager.o
 .text._ZN2bn4freeEPv
                0x00000000       0x18 bn_memory_manager.o
 .text._ZN2bn14memory_manager11ewram_allocEi
                0x00000000       0x18 bn_memory_manager.o
 .text._ZN2bn14memory_manager12ewram_callocEii
                0x00000000       0x18 bn_memory_manager.o
 .text._ZN2bn14memory_manager13ewram_reallocEPvi
                0x00000000       0x18 bn_memory_manager.o
 .text._ZN2bn14memory_manager10ewram_freeEPv
                0x00000000       0x18 bn_memory_manager.o
 .text._ZN2bn14memory_manager16used_alloc_ewramEv
                0x00000000       0x10 bn_memory_manager.o
 .text._ZN2bn14memory_manager21available_alloc_ewramEv
                0x00000000        0xc bn_memory_manager.o
 .text._ZN2bn14memory_manager22log_alloc_ewram_statusEv
                0x00000000       0x14 bn_memory_manager.o
 .text._ZN3_bn6assert9show_argsIA35_cjEEvPKcS4_S4_iRKT_RKT0_
                0x00000000       0x54 bn_memory_manager.o
 .rodata._Znwj.str1.4
                0x00000000       0x47 bn_memory_manager.o
 .text._Znwj    0x00000000       0x40 bn_memory_manager.o
 .rodata._Znaj.str1.4
                0x00000000       0x10 bn_memory_manager.o
 .text._Znaj    0x00000000       0x40 bn_memory_manager.o
 .text._ZN3_bn6assert9show_argsIA16_ciEEvPKcS4_S4_iRKT_RKT0_
                0x00000000       0x54 bn_memory_manager.o
 .text._ZN3_bn6assert9show_argsIA20_cEEvPKcS4_S4_iRKT_
                0x00000000       0x48 bn_memory_manager.o
 .rodata._ZN2bn6memory9set_bytesEhiPv.str1.4
                0x00000000       0x3c bn_memory_manager.o
 .text._ZN2bn6memory9set_bytesEhiPv
                0x00000000       0x5c bn_memory_manager.o
 .rodata._ZN2bn6memsetEPvhi.str1.4
                0x00000000       0x19 bn_memory_manager.o
 .text._ZN2bn6memsetEPvhi
                0x00000000       0x58 bn_memory_manager.o
 .rodata._ZN2bn8memclearEPvi.str1.4
                0x00000000        0x9 bn_memory_manager.o
 .text._ZN2bn8memclearEPvi
                0x00000000       0x58 bn_memory_manager.o
 .text._ZN3_bn6assert9show_argsIA21_ciEEvPKcS4_S4_iRKT_RKT0_
                0x00000000       0x54 bn_memory_manager.o
 .text._ZN3_bn6assert9show_argsIA27_cEEvPKcS4_S4_iRKT_
                0x00000000       0x48 bn_memory_manager.o
 .rodata._ZN2bn6memory14set_half_wordsEtiPv.str1.4
                0x00000000       0x6f bn_memory_manager.o
 .text._ZN2bn6memory14set_half_wordsEtiPv
                0x00000000       0x7c bn_memory_manager.o
 .rodata._ZN2bn6memory9set_wordsEjiPv.str1.4
                0x00000000       0x44 bn_memory_manager.o
 .text._ZN2bn6memory9set_wordsEjiPv
                0x00000000       0x7c bn_memory_manager.o
 .text._ZN3_bn6assert9show_argsIA15_cEEvPKcS4_S4_iRKT_
                0x00000000       0x48 bn_memory_manager.o
 .rodata._ZN2bn6memcpyEPvPKvi.str1.4
                0x00000000       0x1f bn_memory_manager.o
 .text._ZN2bn6memcpyEPvPKvi
                0x00000000       0x70 bn_memory_manager.o
 .text._ZN3_bn6assert9show_argsIA27_ciEEvPKcS4_S4_iRKT_RKT0_
                0x00000000       0x54 bn_memory_manager.o
 .text._ZN3_bn6assert9show_argsIA19_ciEEvPKcS4_S4_iRKT_RKT0_
                0x00000000       0x54 bn_memory_manager.o
 .rodata._ZN2bn6memory4copyIcEEvRKT_iRS2_.str1.4
                0x00000000       0x37 bn_memory_manager.o
 .text._ZN2bn6memory4copyIcEEvRKT_iRS2_
                0x00000000       0x80 bn_memory_manager.o
 .rodata._ZN2bn6memory10decompressENS_16compression_typeEPKviPv.str1.4
                0x00000000       0x27 bn_memory_manager.o
 .text._ZN2bn6memory10decompressENS_16compression_typeEPKviPv
                0x00000000       0xc4 bn_memory_manager.o
 .group         0x00000000        0xc bn_palettes_manager.o
 .group         0x00000000        0xc bn_palettes_manager.o
 .group         0x00000000        0xc bn_palettes_manager.o
 .group         0x00000000        0xc bn_palettes_manager.o
 .group         0x00000000        0xc bn_palettes_manager.o
 .group         0x00000000        0xc bn_palettes_manager.o
 .group         0x00000000        0xc bn_palettes_manager.o
 .group         0x00000000        0xc bn_palettes_manager.o
 .group         0x00000000        0xc bn_palettes_manager.o
 .group         0x00000000        0xc bn_palettes_manager.o
 .group         0x00000000        0xc bn_palettes_manager.o
 .group         0x00000000        0xc bn_palettes_manager.o
 .group         0x00000000        0xc bn_palettes_manager.o
 .group         0x00000000        0xc bn_palettes_manager.o
 .group         0x00000000        0xc bn_palettes_manager.o
 .group         0x00000000        0xc bn_palettes_manager.o
 .group         0x00000000        0xc bn_palettes_manager.o
 .group         0x00000000        0xc bn_palettes_manager.o
 .group         0x00000000        0xc bn_palettes_manager.o
 .group         0x00000000        0xc bn_palettes_manager.o
 .text          0x00000000        0x0 bn_palettes_manager.o
 .data          0x00000000        0x0 bn_palettes_manager.o
 .bss           0x00000000        0x0 bn_palettes_manager.o
 .text._ZN2bn13ostringstream11append_argsIiJA4_ciEEEvRKT_DpRKT0_.isra.0
                0x00000000       0x24 bn_palettes_manager.o
 .text._ZN2bn11bg_palettes17used_colors_countEv
                0x00000000       0x24 bn_palettes_manager.o
 .text._ZN2bn11bg_palettes22available_colors_countEv
                0x00000000       0x2c bn_palettes_manager.o
 .text._ZN2bn11bg_palettes17transparent_colorEv
                0x00000000        0x8 bn_palettes_manager.o
 .text._ZN2bn11bg_palettes21set_transparent_colorENS_5colorE
                0x00000000       0x40 bn_palettes_manager.o
 .text._ZN2bn11bg_palettes21set_transparent_colorERKNS_8optionalINS_5colorEEE
                0x00000000       0x4c bn_palettes_manager.o
 .text._ZN2bn11bg_palettes24remove_transparent_colorEv
                0x00000000       0x30 bn_palettes_manager.o
 .text._ZN2bn11bg_palettes10brightnessEv
                0x00000000       0x10 bn_palettes_manager.o
 .text._ZN2bn11bg_palettes8contrastEv
                0x00000000       0x10 bn_palettes_manager.o
 .text._ZN2bn11bg_palettes9intensityEv
                0x00000000       0x10 bn_palettes_manager.o
 .text._ZN2bn11bg_palettes8invertedEv
                0x00000000       0x10 bn_palettes_manager.o
 .text._ZN2bn11bg_palettes12set_invertedEb
                0x00000000       0x90 bn_palettes_manager.o
 .text._ZN2bn11bg_palettes19grayscale_intensityEv
                0x00000000       0x10 bn_palettes_manager.o
 .text._ZN2bn11bg_palettes19hue_shift_intensityEv
                0x00000000       0x10 bn_palettes_manager.o
 .text._ZN2bn11bg_palettes10fade_colorEv
                0x00000000       0x10 bn_palettes_manager.o
 .text._ZN2bn11bg_palettes14fade_intensityEv
                0x00000000       0x10 bn_palettes_manager.o
 .text._ZN2bn11bg_palettes14set_fade_colorENS_5colorE
                0x00000000       0x40 bn_palettes_manager.o
 .text._ZNK2bn14bg_palette_ptr12colors_countEv
                0x00000000       0x18 bn_palettes_manager.o
 .text._ZNK2bn14bg_palette_ptr8invertedEv
                0x00000000       0x20 bn_palettes_manager.o
 .text._ZN2bn14bg_palette_ptr12set_invertedEb
                0x00000000       0x48 bn_palettes_manager.o
 .text._ZNK2bn14bg_palette_ptr19grayscale_intensityEv
                0x00000000       0x1c bn_palettes_manager.o
 .text._ZNK2bn14bg_palette_ptr19hue_shift_intensityEv
                0x00000000       0x14 bn_palettes_manager.o
 .text._ZNK2bn14bg_palette_ptr10fade_colorEv
                0x00000000       0x14 bn_palettes_manager.o
 .text._ZNK2bn14bg_palette_ptr14fade_intensityEv
                0x00000000       0x14 bn_palettes_manager.o
 .text._ZN2bn14bg_palette_ptr14set_fade_colorENS_5colorE
                0x00000000       0x68 bn_palettes_manager.o
 .text._ZNK2bn14bg_palette_ptr12rotate_countEv
                0x00000000       0x14 bn_palettes_manager.o
 .text._ZNK2bn14bg_palette_ptr18rotate_range_startEv
                0x00000000       0x14 bn_palettes_manager.o
 .text._ZNK2bn14bg_palette_ptr17rotate_range_sizeEv
                0x00000000       0x14 bn_palettes_manager.o
 .text._ZN2bn15sprite_palettes17used_colors_countEv
                0x00000000       0x24 bn_palettes_manager.o
 .text._ZN2bn15sprite_palettes22available_colors_countEv
                0x00000000       0x2c bn_palettes_manager.o
 .text._ZN2bn15sprite_palettes10brightnessEv
                0x00000000       0x10 bn_palettes_manager.o
 .text._ZN2bn15sprite_palettes8contrastEv
                0x00000000       0x10 bn_palettes_manager.o
 .text._ZN2bn15sprite_palettes9intensityEv
                0x00000000       0x10 bn_palettes_manager.o
 .text._ZN2bn15sprite_palettes8invertedEv
                0x00000000       0x10 bn_palettes_manager.o
 .text._ZN2bn15sprite_palettes12set_invertedEb
                0x00000000       0x88 bn_palettes_manager.o
 .text._ZN2bn15sprite_palettes19grayscale_intensityEv
                0x00000000       0x10 bn_palettes_manager.o
 .text._ZN2bn15sprite_palettes19hue_shift_intensityEv
                0x00000000       0x10 bn_palettes_manager.o
 .text._ZN2bn15sprite_palettes10fade_colorEv
                0x00000000       0x10 bn_palettes_manager.o
 .text._ZN2bn15sprite_palettes14fade_intensityEv
                0x00000000       0x10 bn_palettes_manager.o
 .text._ZN2bn15sprite_palettes14set_fade_colorENS_5colorE
                0x00000000       0x3c bn_palettes_manager.o
 .text._ZNK2bn18sprite_palette_ptr12colors_countEv
                0x00000000       0x1c bn_palettes_manager.o
 .text._ZNK2bn18sprite_palette_ptr8invertedEv
                0x00000000       0x1c bn_palettes_manager.o
 .text._ZN2bn18sprite_palette_ptr12set_invertedEb
                0x00000000       0x44 bn_palettes_manager.o
 .text._ZNK2bn18sprite_palette_ptr19grayscale_intensityEv
                0x00000000       0x18 bn_palettes_manager.o
 .text._ZNK2bn18sprite_palette_ptr19hue_shift_intensityEv
                0x00000000       0x18 bn_palettes_manager.o
 .text._ZNK2bn18sprite_palette_ptr10fade_colorEv
                0x00000000       0x18 bn_palettes_manager.o
 .text._ZNK2bn18sprite_palette_ptr14fade_intensityEv
                0x00000000       0x18 bn_palettes_manager.o
 .text._ZN2bn18sprite_palette_ptr14set_fade_colorENS_5colorE
                0x00000000       0x4c bn_palettes_manager.o
 .text._ZNK2bn18sprite_palette_ptr12rotate_countEv
                0x00000000       0x18 bn_palettes_manager.o
 .text._ZNK2bn18sprite_palette_ptr18rotate_range_startEv
                0x00000000       0x18 bn_palettes_manager.o
 .text._ZNK2bn18sprite_palette_ptr17rotate_range_sizeEv
                0x00000000       0x18 bn_palettes_manager.o
 .text._ZNK2bn13palettes_bank17used_colors_countEv
                0x00000000       0x20 bn_palettes_manager.o
 .text._ZN2bn11bg_palettes10log_statusEv
                0x00000000       0x14 bn_palettes_manager.o
 .text._ZN2bn15sprite_palettes10log_statusEv
                0x00000000       0x14 bn_palettes_manager.o
 .text._ZN2bn13palettes_bank10find_bpp_8ERKNS_4spanIKNS_5colorEEE
                0x00000000       0x3c bn_palettes_manager.o
 .text._ZN2bn13palettes_bank15increase_usagesEi
                0x00000000       0x10 bn_palettes_manager.o
 .text._ZNK2bn13palettes_bank3bppEi
                0x00000000       0x10 bn_palettes_manager.o
 .text._ZN2bn13palettes_bank12set_invertedEib
                0x00000000       0x38 bn_palettes_manager.o
 .text._ZN2bn13palettes_bank14set_fade_colorEiNS_5colorE
                0x00000000       0x40 bn_palettes_manager.o
 .text._ZN2bn13palettes_bank6reloadEi
                0x00000000       0x1c bn_palettes_manager.o
 .text._ZN2bn13palettes_bank21set_transparent_colorERKNS_8optionalINS_5colorEEE
                0x00000000       0x40 bn_palettes_manager.o
 .text._ZN2bn13palettes_bank12set_invertedEb
                0x00000000       0x84 bn_palettes_manager.o
 .text._ZN2bn13palettes_bank14set_fade_colorENS_5colorE
                0x00000000       0x3c bn_palettes_manager.o
 .text._ZN2bn13palettes_bank17reset_commit_dataEv
                0x00000000       0x20 bn_palettes_manager.o
 .text._ZNK2bn13palettes_bank12_same_colorsERKNS_4spanIKNS_5colorEEEi
                0x00000000       0x3c bn_palettes_manager.o
 .text._ZNK2bn13palettes_bank18_bpp_8_slots_countEv
                0x00000000       0x18 bn_palettes_manager.o
 .text._ZNK2bn13palettes_bank26_first_bpp_4_palette_indexEv
                0x00000000       0x34 bn_palettes_manager.o
 .text._ZN2bn13palettes_bank25_on_global_effect_updatedEb
                0x00000000       0x80 bn_palettes_manager.o
 .text._ZN2bn13palettes_bank20_set_colors_bpp_implEiRKNS_4spanIKNS_5colorEEE
                0x00000000       0x40 bn_palettes_manager.o
 .text._ZN3_bn6assert9show_argsIA15_ciEEvPKcS4_S4_iRKT_RKT0_
                0x00000000       0x54 bn_palettes_manager.o
 .text._ZNK2bn13palettes_bank6colorsEi
                0x00000000       0x58 bn_palettes_manager.o
 .text._ZNK2bn14bg_palette_ptr6colorsEv
                0x00000000       0x60 bn_palettes_manager.o
 .text._ZNK2bn18sprite_palette_ptr6colorsEv
                0x00000000       0x60 bn_palettes_manager.o
 .text._ZN3_bn6assert9show_argsIJA58_ciA4_ciEEEvPKcS5_S5_iDpRKT_
                0x00000000       0x58 bn_palettes_manager.o
 .text._ZN3_bn6assert9show_argsIA27_ciEEvPKcS4_S4_iRKT_RKT0_
                0x00000000       0x54 bn_palettes_manager.o
 .text._ZN3_bn6assert9show_argsIA23_cEEvPKcS4_S4_iRKT_
                0x00000000       0x48 bn_palettes_manager.o
 .text._ZN3_bn6assert9show_argsIJA24_ciA4_ciEEEvPKcS5_S5_iDpRKT_
                0x00000000       0x58 bn_palettes_manager.o
 .text._ZN3_bn6assert9show_argsIJA16_ciA4_caEEEvPKcS5_S5_iDpRKT_
                0x00000000       0x68 bn_palettes_manager.o
 .text._ZN2bn13palettes_bank16set_rotate_countEii
                0x00000000       0x78 bn_palettes_manager.o
 .text._ZN2bn14bg_palette_ptr16set_rotate_countEi
                0x00000000       0x9c bn_palettes_manager.o
 .text._ZN2bn18sprite_palette_ptr16set_rotate_countEi
                0x00000000       0x80 bn_palettes_manager.o
 .text._ZN3_bn6assert9show_argsIJA16_ciA4_ciEEEvPKcS5_S5_iDpRKT_
                0x00000000       0x58 bn_palettes_manager.o
 .text._ZN3_bn6assert9show_argsIJA15_ciA4_ciEEEvPKcS5_S5_iDpRKT_
                0x00000000       0x58 bn_palettes_manager.o
 .text._ZN3_bn6assert9show_argsIJA16_ciA4_ciS3_iEEEvPKcS5_S5_iDpRKT_
                0x00000000       0x68 bn_palettes_manager.o
 .rodata._ZN2bn13palettes_bank16set_rotate_rangeEiii.str1.4
                0x00000000       0xbe bn_palettes_manager.o
 .text._ZN2bn13palettes_bank16set_rotate_rangeEiii
                0x00000000      0x160 bn_palettes_manager.o
 .text._ZN2bn14bg_palette_ptr16set_rotate_rangeEii
                0x00000000       0x1c bn_palettes_manager.o
 .text._ZN2bn18sprite_palette_ptr16set_rotate_rangeEii
                0x00000000       0x1c bn_palettes_manager.o
 .text._ZN2bn13ostringstream6appendILi12EEEvNS_7fixed_tIXT_EEE
                0x00000000       0xa0 bn_palettes_manager.o
 .text._ZN3_bn6assert9show_argsIA20_cN2bn7fixed_tILi12EEEEEvPKcS7_S7_iRKT_RKT0_
                0x00000000       0x54 bn_palettes_manager.o
 .rodata._ZN2bn13palettes_bank23set_grayscale_intensityEiNS_7fixed_tILi12EEE.str1.4
                0x00000000       0x50 bn_palettes_manager.o
 .text._ZN2bn13palettes_bank23set_grayscale_intensityEiNS_7fixed_tILi12EEE
                0x00000000       0x70 bn_palettes_manager.o
 .rodata._ZN2bn13palettes_bank23set_hue_shift_intensityEiNS_7fixed_tILi12EEE.str1.4
                0x00000000       0x18 bn_palettes_manager.o
 .text._ZN2bn13palettes_bank23set_hue_shift_intensityEiNS_7fixed_tILi12EEE
                0x00000000       0x70 bn_palettes_manager.o
 .rodata._ZN2bn13palettes_bank18set_fade_intensityEiNS_7fixed_tILi12EEE.str1.4
                0x00000000       0x13 bn_palettes_manager.o
 .text._ZN2bn13palettes_bank18set_fade_intensityEiNS_7fixed_tILi12EEE
                0x00000000       0x70 bn_palettes_manager.o
 .rodata._ZN2bn13palettes_bank8set_fadeEiNS_5colorENS_7fixed_tILi12EEE.str1.4
                0x00000000        0x9 bn_palettes_manager.o
 .text._ZN2bn13palettes_bank8set_fadeEiNS_5colorENS_7fixed_tILi12EEE
                0x00000000       0x94 bn_palettes_manager.o
 .rodata._ZN2bn13palettes_bank13set_intensityENS_7fixed_tILi12EEE.str1.4
                0x00000000        0xe bn_palettes_manager.o
 .text._ZN2bn13palettes_bank13set_intensityENS_7fixed_tILi12EEE
                0x00000000       0x64 bn_palettes_manager.o
 .text._ZN2bn13palettes_bank23set_grayscale_intensityENS_7fixed_tILi12EEE
                0x00000000       0x64 bn_palettes_manager.o
 .text._ZN2bn13palettes_bank23set_hue_shift_intensityENS_7fixed_tILi12EEE
                0x00000000       0x64 bn_palettes_manager.o
 .text._ZN2bn13palettes_bank18set_fade_intensityENS_7fixed_tILi12EEE
                0x00000000       0x64 bn_palettes_manager.o
 .text._ZN2bn13palettes_bank8set_fadeENS_5colorENS_7fixed_tILi12EEE
                0x00000000       0x90 bn_palettes_manager.o
 .text._ZN2bn14bg_palette_ptr23set_grayscale_intensityENS_7fixed_tILi12EEE
                0x00000000       0x84 bn_palettes_manager.o
 .text._ZN2bn18sprite_palette_ptr23set_grayscale_intensityENS_7fixed_tILi12EEE
                0x00000000       0x78 bn_palettes_manager.o
 .text._ZN2bn14bg_palette_ptr23set_hue_shift_intensityENS_7fixed_tILi12EEE
                0x00000000       0x88 bn_palettes_manager.o
 .text._ZN2bn18sprite_palette_ptr23set_hue_shift_intensityENS_7fixed_tILi12EEE
                0x00000000       0x78 bn_palettes_manager.o
 .text._ZN2bn14bg_palette_ptr18set_fade_intensityENS_7fixed_tILi12EEE
                0x00000000       0x84 bn_palettes_manager.o
 .text._ZN2bn18sprite_palette_ptr18set_fade_intensityENS_7fixed_tILi12EEE
                0x00000000       0x78 bn_palettes_manager.o
 .text._ZN2bn11bg_palettes13set_intensityENS_7fixed_tILi12EEE
                0x00000000       0x6c bn_palettes_manager.o
 .text._ZN2bn15sprite_palettes13set_intensityENS_7fixed_tILi12EEE
                0x00000000       0x68 bn_palettes_manager.o
 .text._ZN2bn11bg_palettes23set_grayscale_intensityENS_7fixed_tILi12EEE
                0x00000000       0x70 bn_palettes_manager.o
 .text._ZN2bn15sprite_palettes23set_grayscale_intensityENS_7fixed_tILi12EEE
                0x00000000       0x68 bn_palettes_manager.o
 .text._ZN2bn11bg_palettes23set_hue_shift_intensityENS_7fixed_tILi12EEE
                0x00000000       0x70 bn_palettes_manager.o
 .text._ZN2bn15sprite_palettes23set_hue_shift_intensityENS_7fixed_tILi12EEE
                0x00000000       0x6c bn_palettes_manager.o
 .text._ZN2bn11bg_palettes18set_fade_intensityENS_7fixed_tILi12EEE
                0x00000000       0x70 bn_palettes_manager.o
 .text._ZN2bn15sprite_palettes18set_fade_intensityENS_7fixed_tILi12EEE
                0x00000000       0x68 bn_palettes_manager.o
 .text._ZN2bn11bg_palettes8set_fadeENS_5colorENS_7fixed_tILi12EEE
                0x00000000       0xa8 bn_palettes_manager.o
 .text._ZN2bn15sprite_palettes8set_fadeENS_5colorENS_7fixed_tILi12EEE
                0x00000000       0x9c bn_palettes_manager.o
 .text._ZN2bn14bg_palette_ptr8set_fadeENS_5colorENS_7fixed_tILi12EEE
                0x00000000       0xcc bn_palettes_manager.o
 .text._ZN2bn18sprite_palette_ptr8set_fadeENS_5colorENS_7fixed_tILi12EEE
                0x00000000       0xa4 bn_palettes_manager.o
 .text._ZN3_bn6assert9show_argsIA21_cN2bn7fixed_tILi12EEEEEvPKcS7_S7_iRKT_RKT0_
                0x00000000       0x54 bn_palettes_manager.o
 .rodata._ZN2bn13palettes_bank14set_brightnessENS_7fixed_tILi12EEE.str1.4
                0x00000000       0x49 bn_palettes_manager.o
 .text._ZN2bn13palettes_bank14set_brightnessENS_7fixed_tILi12EEE
                0x00000000       0x64 bn_palettes_manager.o
 .text._ZN2bn11bg_palettes14set_brightnessENS_7fixed_tILi12EEE
                0x00000000       0x70 bn_palettes_manager.o
 .text._ZN2bn15sprite_palettes14set_brightnessENS_7fixed_tILi12EEE
                0x00000000       0x68 bn_palettes_manager.o
 .text._ZN3_bn6assert9show_argsIA19_cN2bn7fixed_tILi12EEEEEvPKcS7_S7_iRKT_RKT0_
                0x00000000       0x54 bn_palettes_manager.o
 .rodata._ZN2bn13palettes_bank12set_contrastENS_7fixed_tILi12EEE.str1.4
                0x00000000       0x43 bn_palettes_manager.o
 .text._ZN2bn13palettes_bank12set_contrastENS_7fixed_tILi12EEE
                0x00000000       0x60 bn_palettes_manager.o
 .text._ZN2bn11bg_palettes12set_contrastENS_7fixed_tILi12EEE
                0x00000000       0x70 bn_palettes_manager.o
 .text._ZN2bn15sprite_palettes12set_contrastENS_7fixed_tILi12EEE
                0x00000000       0x68 bn_palettes_manager.o
 .text._ZN3_bn6assert9show_argsIA39_ciEEvPKcS4_S4_iRKT_RKT0_
                0x00000000       0x54 bn_palettes_manager.o
 .text._ZN3_bn6assert9show_argsIA17_cEEvPKcS4_S4_iRKT_
                0x00000000       0x48 bn_palettes_manager.o
 .text._ZN3_bn6assert9show_argsIA26_cEEvPKcS4_S4_iRKT_
                0x00000000       0x48 bn_palettes_manager.o
 .text._ZN2bn14bg_palette_ptr15create_optionalERKNS_15bg_palette_itemE
                0x00000000       0x64 bn_palettes_manager.o
 .text._ZNK2bn15bg_palette_item23create_palette_optionalEv
                0x00000000       0x10 bn_palettes_manager.o
 .text._ZN2bn18sprite_palette_ptr6createERKNS_19sprite_palette_itemE
                0x00000000       0x48 bn_palettes_manager.o
 .text._ZN2bn18sprite_palette_ptr15create_optionalERKNS_19sprite_palette_itemE
                0x00000000       0x58 bn_palettes_manager.o
 .text._ZNK2bn19sprite_palette_item23create_palette_optionalEv
                0x00000000       0x58 bn_palettes_manager.o
 .text._ZN2bn18sprite_palette_ptr19create_new_optionalERKNS_19sprite_palette_itemE
                0x00000000       0xd0 bn_palettes_manager.o
 .text._ZNK2bn19sprite_palette_item27create_new_palette_optionalEv
                0x00000000       0x10 bn_palettes_manager.o
 .text._ZN2bn14bg_palette_ptr19create_new_optionalERKNS_15bg_palette_itemE
                0x00000000       0xdc bn_palettes_manager.o
 .text._ZNK2bn15bg_palette_item27create_new_palette_optionalEv
                0x00000000       0x10 bn_palettes_manager.o
 .text._ZNK2bn19sprite_palette_item18create_new_paletteEv
                0x00000000       0xc4 bn_palettes_manager.o
 .text._ZN2bn18sprite_palette_ptr10create_newERKNS_19sprite_palette_itemE
                0x00000000       0xc4 bn_palettes_manager.o
 .text._ZN3_bn6assert9show_argsIA25_ciEEvPKcS4_S4_iRKT_RKT0_
                0x00000000       0x54 bn_palettes_manager.o
 .text._ZN2bn18sprite_palette_ptraSERKS0_
                0x00000000       0x40 bn_palettes_manager.o
 .text._ZN2bn18sprite_palette_ptr4findERKNS_19sprite_palette_itemE
                0x00000000       0xf8 bn_palettes_manager.o
 .text._ZNK2bn19sprite_palette_item12find_paletteEv
                0x00000000       0x10 bn_palettes_manager.o
 .rodata._ZN2bn13palettes_bank10set_colorsEiRKNS_4spanIKNS_5colorEEE.str1.4
                0x00000000       0x24 bn_palettes_manager.o
 .text._ZN2bn13palettes_bank10set_colorsEiRKNS_4spanIKNS_5colorEEE
                0x00000000      0x2d4 bn_palettes_manager.o
 .text._ZN2bn14bg_palette_ptr10set_colorsERKNS_15bg_palette_itemE
                0x00000000       0x58 bn_palettes_manager.o
 .text._ZN2bn18sprite_palette_ptr10set_colorsERKNS_19sprite_palette_itemE
                0x00000000       0x58 bn_palettes_manager.o
 .text          0x00000000        0x0 bn_profiler.o
 .data          0x00000000        0x0 bn_profiler.o
 .bss           0x00000000        0x0 bn_profiler.o
 .debug_info    0x00000000      0x45f bn_profiler.o
 .debug_abbrev  0x00000000       0xdc bn_profiler.o
 .debug_aranges
                0x00000000       0x18 bn_profiler.o
 .debug_line    0x00000000      0x237 bn_profiler.o
 .debug_str     0x00000000      0x4a0 bn_profiler.o
 .comment       0x00000000       0x24 bn_profiler.o
 .group         0x00000000        0xc bn_regular_bg_animate_actions.o
 .group         0x00000000        0xc bn_regular_bg_animate_actions.o
 .group         0x00000000        0xc bn_regular_bg_animate_actions.o
 .group         0x00000000        0xc bn_regular_bg_animate_actions.o
 .group         0x00000000        0xc bn_regular_bg_animate_actions.o
 .group         0x00000000        0xc bn_regular_bg_animate_actions.o
 .group         0x00000000        0xc bn_regular_bg_animate_actions.o
 .group         0x00000000        0xc bn_regular_bg_animate_actions.o
 .group         0x00000000        0xc bn_regular_bg_animate_actions.o
 .text          0x00000000        0x0 bn_regular_bg_animate_actions.o
 .data          0x00000000        0x0 bn_regular_bg_animate_actions.o
 .bss           0x00000000        0x0 bn_regular_bg_animate_actions.o
 .text._ZN2bn13ostringstream11append_argsIiJA4_ciEEEvRKT_DpRKT0_.isra.0
                0x00000000       0x24 bn_regular_bg_animate_actions.o
 .text._ZN2bn26iregular_bg_animate_action9_set_refsERNS_14regular_bg_ptrERNS_19regular_bg_map_itemERNS_7ivectorItEE
                0x00000000        0x4 bn_regular_bg_animate_actions.o
 .text._ZN2bn26iregular_bg_animate_action7_assignERKS0_
                0x00000000       0x10 bn_regular_bg_animate_actions.o
 .text._ZN2bn33iregular_bg_cached_animate_action9_set_refsERNS_14regular_bg_ptrERNS_7ivectorINS_18regular_bg_map_ptrEEE
                0x00000000        0x4 bn_regular_bg_animate_actions.o
 .text._ZN2bn33iregular_bg_cached_animate_action7_assignERKS0_
                0x00000000       0x10 bn_regular_bg_animate_actions.o
 .text._ZN3_bn6assert9show_argsIJA16_ciA4_ciEEEvPKcS5_S5_iDpRKT_
                0x00000000       0x58 bn_regular_bg_animate_actions.o
 .text._ZN3_bn6assert9show_argsIJA23_ciA4_ciEEEvPKcS5_S5_iDpRKT_
                0x00000000       0x58 bn_regular_bg_animate_actions.o
 .text._ZN3_bn6assert9show_argsIA15_cEEvPKcS4_S4_iRKT_
                0x00000000       0x48 bn_regular_bg_animate_actions.o
 .rodata._ZN2bn26iregular_bg_animate_action6updateEv.str1.4
                0x00000000       0x90 bn_regular_bg_animate_actions.o
 .text._ZN2bn26iregular_bg_animate_action6updateEv
                0x00000000       0xb8 bn_regular_bg_animate_actions.o
 .text._ZN2bn33iregular_bg_cached_animate_action6updateEv
                0x00000000       0xa4 bn_regular_bg_animate_actions.o
 .text._ZN3_bn6assert9show_argsIA23_ciEEvPKcS4_S4_iRKT_RKT0_
                0x00000000       0x54 bn_regular_bg_animate_actions.o
 .text._ZN3_bn6assert9show_argsIA24_ciEEvPKcS4_S4_iRKT_RKT0_
                0x00000000       0x54 bn_regular_bg_animate_actions.o
 .rodata._ZN2bn26iregular_bg_animate_action16set_wait_updatesEi.str1.4
                0x00000000       0x98 bn_regular_bg_animate_actions.o
 .text._ZN2bn26iregular_bg_animate_action16set_wait_updatesEi
                0x00000000       0x68 bn_regular_bg_animate_actions.o
 .text._ZN2bn33iregular_bg_cached_animate_action16set_wait_updatesEi
                0x00000000       0x68 bn_regular_bg_animate_actions.o
 .text._ZN3_bn6assert9show_argsIA28_ciEEvPKcS4_S4_iRKT_RKT0_
                0x00000000       0x54 bn_regular_bg_animate_actions.o
 .rodata._ZN2bn26iregular_bg_animate_action19_assign_map_indexesERKNS_4spanIKtEE.str1.4
                0x00000000       0x9f bn_regular_bg_animate_actions.o
 .text._ZN2bn26iregular_bg_animate_action19_assign_map_indexesERKNS_4spanIKtEE
                0x00000000       0x84 bn_regular_bg_animate_actions.o
 .text._ZN3_bn6assert9show_argsIJA28_ciA4_ciEEEvPKcS5_S5_iDpRKT_
                0x00000000       0x58 bn_regular_bg_animate_actions.o
 .rodata._ZN2bn33iregular_bg_cached_animate_action19_assign_map_indexesERKNS_19regular_bg_map_itemERKNS_4spanIKtEE.str1.4
                0x00000000       0x46 bn_regular_bg_animate_actions.o
 .text._ZN2bn33iregular_bg_cached_animate_action19_assign_map_indexesERKNS_19regular_bg_map_itemERKNS_4spanIKtEE
                0x00000000      0x104 bn_regular_bg_animate_actions.o
 .text._ZN3_bn6assert9show_argsIJA21_ciA4_ciEEEvPKcS5_S5_iDpRKT_
                0x00000000       0x58 bn_regular_bg_animate_actions.o
 .rodata._ZN2bn33iregular_bg_cached_animate_action12_assign_mapsENS_4spanINS_18regular_bg_map_ptrEEE.str1.4
                0x00000000       0x5d bn_regular_bg_animate_actions.o
 .text._ZN2bn33iregular_bg_cached_animate_action12_assign_mapsENS_4spanINS_18regular_bg_map_ptrEEE
                0x00000000       0x9c bn_regular_bg_animate_actions.o
 .text._ZN3_bn6assert9show_argsIJA19_ciA4_ciEEEvPKcS5_S5_iDpRKT_
                0x00000000       0x58 bn_regular_bg_animate_actions.o
 .rodata._ZN2bn33iregular_bg_cached_animate_actionaSERKS0_.str1.4
                0x00000000       0x77 bn_regular_bg_animate_actions.o
 .text._ZN2bn33iregular_bg_cached_animate_actionaSERKS0_
                0x00000000       0xfc bn_regular_bg_animate_actions.o
 .text._ZN2bn33iregular_bg_cached_animate_actionaSEOS0_
                0x00000000      0x118 bn_regular_bg_animate_actions.o
 .rodata._ZN2bn26iregular_bg_animate_actionaSEOS0_.str1.4
                0x00000000       0x4f bn_regular_bg_animate_actions.o
 .text._ZN2bn26iregular_bg_animate_actionaSEOS0_
                0x00000000       0xcc bn_regular_bg_animate_actions.o
 .text._ZN2bn33iregular_bg_cached_animate_action12_assign_mapsERKNS_7ivectorINS_18regular_bg_map_ptrEEE
                0x00000000       0x8c bn_regular_bg_animate_actions.o
 .text._ZN2bn33iregular_bg_cached_animate_action12_assign_mapsEONS_7ivectorINS_18regular_bg_map_ptrEEE
                0x00000000       0xa0 bn_regular_bg_animate_actions.o
 .text._ZN2bn26iregular_bg_animate_action19_assign_map_indexesERKNS_7ivectorItEE
                0x00000000       0x60 bn_regular_bg_animate_actions.o
 .text._ZN2bn26iregular_bg_animate_actionaSERKS0_
                0x00000000       0xcc bn_regular_bg_animate_actions.o
 .debug_info    0x00000000     0xbd6a bn_regular_bg_animate_actions.o
 .debug_abbrev  0x00000000      0xc9d bn_regular_bg_animate_actions.o
 .debug_loc     0x00000000     0x2abd bn_regular_bg_animate_actions.o
 .debug_aranges
                0x00000000       0xf8 bn_regular_bg_animate_actions.o
 .debug_ranges  0x00000000      0x708 bn_regular_bg_animate_actions.o
 .debug_line    0x00000000     0x1f0a bn_regular_bg_animate_actions.o
 .debug_str     0x00000000     0x9010 bn_regular_bg_animate_actions.o
 .comment       0x00000000       0x24 bn_regular_bg_animate_actions.o
 .debug_frame   0x00000000      0x3a0 bn_regular_bg_animate_actions.o
 .group         0x00000000        0xc bn_sprite_affine_mats_manager.o
 .group         0x00000000        0xc bn_sprite_affine_mats_manager.o
 .group         0x00000000        0xc bn_sprite_affine_mats_manager.o
 .group         0x00000000        0xc bn_sprite_affine_mats_manager.o
 .group         0x00000000        0xc bn_sprite_affine_mats_manager.o
 .group         0x00000000        0xc bn_sprite_affine_mats_manager.o
 .group         0x00000000        0xc bn_sprite_affine_mats_manager.o
 .group         0x00000000        0xc bn_sprite_affine_mats_manager.o
 .group         0x00000000        0xc bn_sprite_affine_mats_manager.o
 .group         0x00000000        0xc bn_sprite_affine_mats_manager.o
 .group         0x00000000        0xc bn_sprite_affine_mats_manager.o
 .text          0x00000000        0x0 bn_sprite_affine_mats_manager.o
 .data          0x00000000        0x0 bn_sprite_affine_mats_manager.o
 .bss           0x00000000        0x0 bn_sprite_affine_mats_manager.o
 .text._ZN2bn26sprite_affine_mats_manager12_GLOBAL__N_124_update_flipped_identityEi
                0x00000000       0xbc bn_sprite_affine_mats_manager.o
 .text._ZN2bn18sprite_affine_mats10used_countEv
                0x00000000       0x1c bn_sprite_affine_mats_manager.o
 .text._ZN2bn18sprite_affine_mats15available_countEv
                0x00000000       0x10 bn_sprite_affine_mats_manager.o
 .text._ZN2bn21sprite_affine_mat_ptrC2ERKS0_
                0x00000000       0x20 bn_sprite_affine_mats_manager.o
 .text._ZNK2bn21sprite_affine_mat_ptr14rotation_angleEv
                0x00000000       0x14 bn_sprite_affine_mats_manager.o
 .text._ZNK2bn21sprite_affine_mat_ptr16horizontal_scaleEv
                0x00000000       0x18 bn_sprite_affine_mats_manager.o
 .text._ZNK2bn21sprite_affine_mat_ptr14vertical_scaleEv
                0x00000000       0x18 bn_sprite_affine_mats_manager.o
 .text._ZNK2bn21sprite_affine_mat_ptr16horizontal_shearEv
                0x00000000       0x18 bn_sprite_affine_mats_manager.o
 .text._ZN2bn21sprite_affine_mat_ptr20set_horizontal_shearENS_7fixed_tILi12EEE
                0x00000000       0x8c bn_sprite_affine_mats_manager.o
 .text._ZNK2bn21sprite_affine_mat_ptr14vertical_shearEv
                0x00000000       0x18 bn_sprite_affine_mats_manager.o
 .text._ZN2bn21sprite_affine_mat_ptr18set_vertical_shearENS_7fixed_tILi12EEE
                0x00000000       0x88 bn_sprite_affine_mats_manager.o
 .text._ZN2bn21sprite_affine_mat_ptr19set_horizontal_flipEb
                0x00000000       0x78 bn_sprite_affine_mats_manager.o
 .text._ZN2bn21sprite_affine_mat_ptr17set_vertical_flipEb
                0x00000000       0x74 bn_sprite_affine_mats_manager.o
 .text._ZNK2bn21sprite_affine_mat_ptr10attributesEv
                0x00000000       0x14 bn_sprite_affine_mats_manager.o
 .text._ZNK2bn21sprite_affine_mat_ptr8identityEv
                0x00000000       0x68 bn_sprite_affine_mats_manager.o
 .text._ZN2bn26sprite_affine_mats_manager10used_countEv
                0x00000000       0x1c bn_sprite_affine_mats_manager.o
 .text._ZN2bn26sprite_affine_mats_manager15available_countEv
                0x00000000       0x10 bn_sprite_affine_mats_manager.o
 .text._ZN2bn26sprite_affine_mats_manager15increase_usagesEi
                0x00000000       0x18 bn_sprite_affine_mats_manager.o
 .text._ZN2bn26sprite_affine_mats_manager14rotation_angleEi
                0x00000000       0x10 bn_sprite_affine_mats_manager.o
 .text._ZN2bn26sprite_affine_mats_manager16horizontal_scaleEi
                0x00000000       0x14 bn_sprite_affine_mats_manager.o
 .text._ZN2bn26sprite_affine_mats_manager14vertical_scaleEi
                0x00000000       0x14 bn_sprite_affine_mats_manager.o
 .text._ZN2bn26sprite_affine_mats_manager16horizontal_shearEi
                0x00000000       0x14 bn_sprite_affine_mats_manager.o
 .text._ZN2bn26sprite_affine_mats_manager20set_horizontal_shearEiNS_7fixed_tILi12EEE
                0x00000000       0x88 bn_sprite_affine_mats_manager.o
 .text._ZN2bn26sprite_affine_mats_manager14vertical_shearEi
                0x00000000       0x14 bn_sprite_affine_mats_manager.o
 .text._ZN2bn26sprite_affine_mats_manager18set_vertical_shearEiNS_7fixed_tILi12EEE
                0x00000000       0x84 bn_sprite_affine_mats_manager.o
 .text._ZN2bn26sprite_affine_mats_manager9set_shearEiNS_7fixed_tILi12EEE
                0x00000000       0xd0 bn_sprite_affine_mats_manager.o
 .text._ZN2bn21sprite_affine_mat_ptr9set_shearENS_7fixed_tILi12EEE
                0x00000000       0x14 bn_sprite_affine_mats_manager.o
 .text._ZN2bn26sprite_affine_mats_manager9set_shearEiNS_7fixed_tILi12EEES2_
                0x00000000       0xd4 bn_sprite_affine_mats_manager.o
 .text._ZN2bn21sprite_affine_mat_ptr9set_shearENS_7fixed_tILi12EEES2_
                0x00000000       0x14 bn_sprite_affine_mats_manager.o
 .text._ZN2bn26sprite_affine_mats_manager15horizontal_flipEi
                0x00000000       0x14 bn_sprite_affine_mats_manager.o
 .text._ZN2bn26sprite_affine_mats_manager19set_horizontal_flipEib
                0x00000000       0x70 bn_sprite_affine_mats_manager.o
 .text._ZN2bn26sprite_affine_mats_manager13vertical_flipEi
                0x00000000       0x14 bn_sprite_affine_mats_manager.o
 .text._ZN2bn26sprite_affine_mats_manager17set_vertical_flipEib
                0x00000000       0x70 bn_sprite_affine_mats_manager.o
 .text._ZN2bn26sprite_affine_mats_manager10attributesEi
                0x00000000       0x10 bn_sprite_affine_mats_manager.o
 .text._ZN2bn26sprite_affine_mats_manager14set_attributesEiRKNS_21affine_mat_attributesE
                0x00000000      0x100 bn_sprite_affine_mats_manager.o
 .text._ZN2bn21sprite_affine_mat_ptr14set_attributesERKNS_21affine_mat_attributesE
                0x00000000       0x14 bn_sprite_affine_mats_manager.o
 .text._ZN2bn26sprite_affine_mats_manager8identityEi
                0x00000000       0x64 bn_sprite_affine_mats_manager.o
 .text._ZN2bn26sprite_affine_mats_manager16flipped_identityEi
                0x00000000       0x10 bn_sprite_affine_mats_manager.o
 .text._ZN2bn26sprite_affine_mats_manager6reloadEi
                0x00000000       0x28 bn_sprite_affine_mats_manager.o
 .text._ZN3_bn6assert9show_argsIJA46_ciA4_ciEEEvPKcS5_S5_iDpRKT_
                0x00000000       0x64 bn_sprite_affine_mats_manager.o
 .text._ZN2bn26sprite_affine_mats_manager22reserve_sprite_handlesEi
                0x00000000       0xb0 bn_sprite_affine_mats_manager.o
 .text._ZN2bn13ostringstream6appendILi12EEEvNS_7fixed_tIXT_EEE
                0x00000000       0xa0 bn_sprite_affine_mats_manager.o
 .text._ZN3_bn6assert9show_argsIA38_cN2bn7fixed_tILi12EEEEEvPKcS7_S7_iRKT_RKT0_
                0x00000000       0x54 bn_sprite_affine_mats_manager.o
 .rodata._ZN2bn26sprite_affine_mats_manager18set_rotation_angleEiNS_7fixed_tILi12EEE.str1.4
                0x00000000       0x76 bn_sprite_affine_mats_manager.o
 .text._ZN2bn26sprite_affine_mats_manager18set_rotation_angleEiNS_7fixed_tILi12EEE
                0x00000000      0x13c bn_sprite_affine_mats_manager.o
 .text._ZN2bn21sprite_affine_mat_ptr18set_rotation_angleENS_7fixed_tILi12EEE
                0x00000000       0x14 bn_sprite_affine_mats_manager.o
 .text._ZN3_bn6assert9show_argsIA27_cN2bn7fixed_tILi12EEEEEvPKcS7_S7_iRKT_RKT0_
                0x00000000       0x54 bn_sprite_affine_mats_manager.o
 .rodata._ZN2bn26sprite_affine_mats_manager20set_horizontal_scaleEiNS_7fixed_tILi12EEE.str1.4
                0x00000000       0x67 bn_sprite_affine_mats_manager.o
 .text._ZN2bn26sprite_affine_mats_manager20set_horizontal_scaleEiNS_7fixed_tILi12EEE
                0x00000000      0x104 bn_sprite_affine_mats_manager.o
 .text._ZN2bn21sprite_affine_mat_ptr20set_horizontal_scaleENS_7fixed_tILi12EEE
                0x00000000       0x14 bn_sprite_affine_mats_manager.o
 .text._ZN3_bn6assert9show_argsIA25_cN2bn7fixed_tILi12EEEEEvPKcS7_S7_iRKT_RKT0_
                0x00000000       0x54 bn_sprite_affine_mats_manager.o
 .rodata._ZN2bn26sprite_affine_mats_manager18set_vertical_scaleEiNS_7fixed_tILi12EEE.str1.4
                0x00000000       0x41 bn_sprite_affine_mats_manager.o
 .text._ZN2bn26sprite_affine_mats_manager18set_vertical_scaleEiNS_7fixed_tILi12EEE
                0x00000000      0x100 bn_sprite_affine_mats_manager.o
 .text._ZN2bn21sprite_affine_mat_ptr18set_vertical_scaleENS_7fixed_tILi12EEE
                0x00000000       0x14 bn_sprite_affine_mats_manager.o
 .rodata._ZN2bn26sprite_affine_mats_manager9set_scaleEiNS_7fixed_tILi12EEES2_.str1.4
                0x00000000        0xa bn_sprite_affine_mats_manager.o
 .text._ZN2bn26sprite_affine_mats_manager9set_scaleEiNS_7fixed_tILi12EEES2_
                0x00000000      0x1d0 bn_sprite_affine_mats_manager.o
 .text._ZN2bn21sprite_affine_mat_ptr9set_scaleENS_7fixed_tILi12EEES2_
                0x00000000       0x14 bn_sprite_affine_mats_manager.o
 .text._ZN3_bn6assert9show_argsIA16_cN2bn7fixed_tILi12EEEEEvPKcS7_S7_iRKT_RKT0_
                0x00000000       0x54 bn_sprite_affine_mats_manager.o
 .rodata._ZN2bn26sprite_affine_mats_manager9set_scaleEiNS_7fixed_tILi12EEE.str1.4
                0x00000000       0x1c bn_sprite_affine_mats_manager.o
 .text._ZN2bn26sprite_affine_mats_manager9set_scaleEiNS_7fixed_tILi12EEE
                0x00000000      0x14c bn_sprite_affine_mats_manager.o
 .text._ZN2bn21sprite_affine_mat_ptr9set_scaleENS_7fixed_tILi12EEE
                0x00000000       0x14 bn_sprite_affine_mats_manager.o
 .text._ZN3_bn6assert9show_argsIA16_cEEvPKcS4_S4_iRKT_
                0x00000000       0x48 bn_sprite_affine_mats_manager.o
 .text._ZN3_bn6assert9show_argsIA17_cEEvPKcS4_S4_iRKT_
                0x00000000       0x48 bn_sprite_affine_mats_manager.o
 .text._ZN2bn26sprite_affine_mats_manager12_GLOBAL__N_115_new_item_indexEv
                0x00000000       0xd8 bn_sprite_affine_mats_manager.o
 .text._ZN2bn26sprite_affine_mats_manager15create_optionalEv
                0x00000000       0x78 bn_sprite_affine_mats_manager.o
 .text._ZN2bn26sprite_affine_mats_manager15create_optionalERKNS_21affine_mat_attributesE
                0x00000000       0xe4 bn_sprite_affine_mats_manager.o
 .rodata._ZN2bn26sprite_affine_mats_manager6createERKNS_21affine_mat_attributesE.str1.4
                0x00000000       0x2d bn_sprite_affine_mats_manager.o
 .text._ZN2bn26sprite_affine_mats_manager6createERKNS_21affine_mat_attributesE
                0x00000000       0x34 bn_sprite_affine_mats_manager.o
 .text._ZN2bn21sprite_affine_mat_ptr15create_optionalERKNS_21affine_mat_attributesE
                0x00000000       0x24 bn_sprite_affine_mats_manager.o
 .text._ZN2bn21sprite_affine_mat_ptr6createERKNS_21affine_mat_attributesE
                0x00000000       0x40 bn_sprite_affine_mats_manager.o
 .text._ZN2bn21sprite_affine_mat_ptr15create_optionalEv
                0x00000000       0x9c bn_sprite_affine_mats_manager.o
 .text._ZN2bn26sprite_affine_mats_manager6createEv
                0x00000000       0xac bn_sprite_affine_mats_manager.o
 .text._ZN2bn21sprite_affine_mat_ptr6createEv
                0x00000000       0xb0 bn_sprite_affine_mats_manager.o
 .text._ZN3_bn6assert9show_argsIA15_cEEvPKcS4_S4_iRKT_
                0x00000000       0x48 bn_sprite_affine_mats_manager.o
 .text._ZN2bn26sprite_affine_mats_manager15decrease_usagesEi
                0x00000000       0x28 bn_sprite_affine_mats_manager.o
 .text._ZN2bn21sprite_affine_mat_ptraSERKS0_
                0x00000000       0x50 bn_sprite_affine_mats_manager.o
 .text._ZN3_bn6assert9show_argsIA14_cEEvPKcS4_S4_iRKT_
                0x00000000       0x48 bn_sprite_affine_mats_manager.o
 .group         0x00000000        0xc bn_sprite_animate_actions.o
 .group         0x00000000        0xc bn_sprite_animate_actions.o
 .group         0x00000000        0xc bn_sprite_animate_actions.o
 .group         0x00000000        0xc bn_sprite_animate_actions.o
 .group         0x00000000        0xc bn_sprite_animate_actions.o
 .group         0x00000000        0xc bn_sprite_animate_actions.o
 .group         0x00000000        0xc bn_sprite_animate_actions.o
 .group         0x00000000        0xc bn_sprite_animate_actions.o
 .group         0x00000000        0xc bn_sprite_animate_actions.o
 .group         0x00000000        0xc bn_sprite_animate_actions.o
 .text          0x00000000        0x0 bn_sprite_animate_actions.o
 .data          0x00000000        0x0 bn_sprite_animate_actions.o
 .bss           0x00000000        0x0 bn_sprite_animate_actions.o
 .text._ZN2bn13ostringstream11append_argsIiJA4_ciEEEvRKT_DpRKT0_.isra.0
                0x00000000       0x24 bn_sprite_animate_actions.o
 .text._ZN2bn22isprite_animate_action9_set_refsERNS_10sprite_ptrERNS_17sprite_tiles_itemERNS_7ivectorItEE
                0x00000000        0x4 bn_sprite_animate_actions.o
 .text._ZN2bn22isprite_animate_action7_assignERKS0_
                0x00000000       0x10 bn_sprite_animate_actions.o
 .text._ZN2bn29isprite_cached_animate_action9_set_refsERNS_10sprite_ptrERNS_7ivectorINS_16sprite_tiles_ptrEEE
                0x00000000        0x4 bn_sprite_animate_actions.o
 .text._ZN2bn29isprite_cached_animate_action7_assignERKS0_
                0x00000000       0x10 bn_sprite_animate_actions.o
 .text._ZN3_bn6assert9show_argsIJA28_ciA4_ciEEEvPKcS5_S5_iDpRKT_
                0x00000000       0x58 bn_sprite_animate_actions.o
 .text._ZN3_bn6assert9show_argsIA15_cEEvPKcS4_S4_iRKT_
                0x00000000       0x48 bn_sprite_animate_actions.o
 .text._ZN3_bn6assert9show_argsIA23_ciEEvPKcS4_S4_iRKT_RKT0_
                0x00000000       0x54 bn_sprite_animate_actions.o
 .text._ZN3_bn6assert9show_argsIA24_ciEEvPKcS4_S4_iRKT_RKT0_
                0x00000000       0x54 bn_sprite_animate_actions.o
 .rodata._ZN2bn22isprite_animate_action16set_wait_updatesEi.str1.4
                0x00000000       0xb8 bn_sprite_animate_actions.o
 .text._ZN2bn22isprite_animate_action16set_wait_updatesEi
                0x00000000       0x68 bn_sprite_animate_actions.o
 .text._ZN2bn29isprite_cached_animate_action16set_wait_updatesEi
                0x00000000       0x68 bn_sprite_animate_actions.o
 .text._ZN3_bn6assert9show_argsIA33_ciEEvPKcS4_S4_iRKT_RKT0_
                0x00000000       0x54 bn_sprite_animate_actions.o
 .rodata._ZN2bn22isprite_animate_action24_assign_graphics_indexesERKNS_4spanIKtEE.str1.4
                0x00000000       0xc7 bn_sprite_animate_actions.o
 .text._ZN2bn22isprite_animate_action24_assign_graphics_indexesERKNS_4spanIKtEE
                0x00000000       0x84 bn_sprite_animate_actions.o
 .text._ZN3_bn6assert9show_argsIJA17_ciA4_ciEEEvPKcS5_S5_iDpRKT_
                0x00000000       0x58 bn_sprite_animate_actions.o
 .text._ZN3_bn6assert9show_argsIJA33_ciA4_ciEEEvPKcS5_S5_iDpRKT_
                0x00000000       0x58 bn_sprite_animate_actions.o
 .rodata._ZN2bn29isprite_cached_animate_action24_assign_graphics_indexesERKNS_17sprite_tiles_itemERKNS_4spanIKtEE.str1.4
                0x00000000       0x5c bn_sprite_animate_actions.o
 .text._ZN2bn29isprite_cached_animate_action24_assign_graphics_indexesERKNS_17sprite_tiles_itemERKNS_4spanIKtEE
                0x00000000       0xcc bn_sprite_animate_actions.o
 .text._ZN3_bn6assert9show_argsIJA22_ciA4_ciEEEvPKcS5_S5_iDpRKT_
                0x00000000       0x58 bn_sprite_animate_actions.o
 .rodata._ZN2bn29isprite_cached_animate_action18_assign_tiles_listENS_4spanINS_16sprite_tiles_ptrEEE.str1.4
                0x00000000       0x76 bn_sprite_animate_actions.o
 .text._ZN2bn29isprite_cached_animate_action18_assign_tiles_listENS_4spanINS_16sprite_tiles_ptrEEE
                0x00000000       0xa0 bn_sprite_animate_actions.o
 .text._ZN3_bn6assert9show_argsIJA16_ciA4_ciEEEvPKcS5_S5_iDpRKT_
                0x00000000       0x58 bn_sprite_animate_actions.o
 .rodata._ZN2bn29isprite_cached_animate_action6updateEv.str1.4
                0x00000000       0x5c bn_sprite_animate_actions.o
 .text._ZN2bn29isprite_cached_animate_action6updateEv
                0x00000000       0xa8 bn_sprite_animate_actions.o
 .text._ZN2bn22isprite_animate_action6updateEv
                0x00000000       0xb8 bn_sprite_animate_actions.o
 .text._ZN3_bn6assert9show_argsIJA19_ciA4_ciEEEvPKcS5_S5_iDpRKT_
                0x00000000       0x58 bn_sprite_animate_actions.o
 .rodata._ZN2bn29isprite_cached_animate_actionaSERKS0_.str1.4
                0x00000000       0x87 bn_sprite_animate_actions.o
 .text._ZN2bn29isprite_cached_animate_actionaSERKS0_
                0x00000000      0x100 bn_sprite_animate_actions.o
 .text._ZN2bn29isprite_cached_animate_actionaSEOS0_
                0x00000000      0x11c bn_sprite_animate_actions.o
 .rodata._ZN2bn22isprite_animate_actionaSEOS0_.str1.4
                0x00000000       0x60 bn_sprite_animate_actions.o
 .text._ZN2bn22isprite_animate_actionaSEOS0_
                0x00000000       0xc8 bn_sprite_animate_actions.o
 .text._ZN2bn29isprite_cached_animate_action18_assign_tiles_listERKNS_7ivectorINS_16sprite_tiles_ptrEEE
                0x00000000       0x90 bn_sprite_animate_actions.o
 .text._ZN2bn29isprite_cached_animate_action18_assign_tiles_listEONS_7ivectorINS_16sprite_tiles_ptrEEE
                0x00000000       0xa8 bn_sprite_animate_actions.o
 .text._ZN2bn22isprite_animate_action24_assign_graphics_indexesERKNS_7ivectorItEE
                0x00000000       0x60 bn_sprite_animate_actions.o
 .text._ZN2bn22isprite_animate_actionaSERKS0_
                0x00000000       0xc8 bn_sprite_animate_actions.o
 .debug_info    0x00000000     0xb8ed bn_sprite_animate_actions.o
 .debug_abbrev  0x00000000      0xc55 bn_sprite_animate_actions.o
 .debug_loc     0x00000000     0x2bb9 bn_sprite_animate_actions.o
 .debug_aranges
                0x00000000      0x100 bn_sprite_animate_actions.o
 .debug_ranges  0x00000000      0x6b8 bn_sprite_animate_actions.o
 .debug_line    0x00000000     0x1ee9 bn_sprite_animate_actions.o
 .debug_str     0x00000000     0x827d bn_sprite_animate_actions.o
 .comment       0x00000000       0x24 bn_sprite_animate_actions.o
 .debug_frame   0x00000000      0x3c0 bn_sprite_animate_actions.o
 .group         0x00000000        0xc bn_sprite_text_generator.o
 .group         0x00000000        0xc bn_sprite_text_generator.o
 .group         0x00000000        0xc bn_sprite_text_generator.o
 .group         0x00000000        0xc bn_sprite_text_generator.o
 .group         0x00000000        0xc bn_sprite_text_generator.o
 .group         0x00000000        0xc bn_sprite_text_generator.o
 .group         0x00000000        0xc bn_sprite_text_generator.o
 .group         0x00000000        0xc bn_sprite_text_generator.o
 .group         0x00000000        0xc bn_sprite_text_generator.o
 .group         0x00000000        0xc bn_sprite_text_generator.o
 .group         0x00000000        0xc bn_sprite_text_generator.o
 .group         0x00000000        0xc bn_sprite_text_generator.o
 .group         0x00000000        0xc bn_sprite_text_generator.o
 .group         0x00000000        0xc bn_sprite_text_generator.o
 .group         0x00000000        0xc bn_sprite_text_generator.o
 .group         0x00000000        0xc bn_sprite_text_generator.o
 .text          0x00000000        0x0 bn_sprite_text_generator.o
 .data          0x00000000        0x0 bn_sprite_text_generator.o
 .bss           0x00000000        0x0 bn_sprite_text_generator.o
 .text._ZN3_bn6assert9show_argsIA16_ciEEvPKcS4_S4_iRKT_RKT0_
                0x00000000       0x54 bn_sprite_text_generator.o
 .text._ZN3_bn6assert9show_argsIA15_ciEEvPKcS4_S4_iRKT_RKT0_
                0x00000000       0x54 bn_sprite_text_generator.o
 .text._ZN3_bn6assert9show_argsIA22_cEEvPKcS4_S4_iRKT_
                0x00000000       0x48 bn_sprite_text_generator.o
 .text._ZN3_bn6assert9show_argsIA24_cEEvPKcS4_S4_iRKT_
                0x00000000       0x48 bn_sprite_text_generator.o
 .text._ZN3_bn6assert9show_argsIA28_ciEEvPKcS4_S4_iRKT_RKT0_
                0x00000000       0x54 bn_sprite_text_generator.o
 .text._ZN3_bn6assert9show_argsIA25_cEEvPKcS4_S4_iRKT_
                0x00000000       0x48 bn_sprite_text_generator.o
 .text._ZN2bn21sprite_text_generatorC2ERKNS_11sprite_fontERKNS_19sprite_palette_itemE
                0x00000000       0x58 bn_sprite_text_generator.o
 .rodata._ZN2bn21sprite_text_generator16set_palette_itemERKNS_19sprite_palette_itemE.str1.4
                0x00000000       0x11 bn_sprite_text_generator.o
 .text._ZN2bn21sprite_text_generator16set_palette_itemERKNS_19sprite_palette_itemE
                0x00000000       0x3c bn_sprite_text_generator.o
 .text._ZN3_bn6assert9show_argsIA22_ciEEvPKcS4_S4_iRKT_RKT0_
                0x00000000       0x54 bn_sprite_text_generator.o
 .rodata._ZN2bn21sprite_text_generator15set_bg_priorityEi.str1.4
                0x00000000       0x66 bn_sprite_text_generator.o
 .text._ZN2bn21sprite_text_generator15set_bg_priorityEi
                0x00000000       0x3c bn_sprite_text_generator.o
 .text._ZN3_bn6assert9show_argsIA18_ciEEvPKcS4_S4_iRKT_RKT0_
                0x00000000       0x54 bn_sprite_text_generator.o
 .rodata._ZN2bn21sprite_text_generator11set_z_orderEi.str1.4
                0x00000000       0x66 bn_sprite_text_generator.o
 .text._ZN2bn21sprite_text_generator11set_z_orderEi
                0x00000000       0x4c bn_sprite_text_generator.o
 .text._ZN3_bn6assert9show_argsIA20_ciEEvPKcS4_S4_iRKT_RKT0_
                0x00000000       0x54 bn_sprite_text_generator.o
 .text._ZN3_bn6assert9show_argsIA39_ciEEvPKcS4_S4_iRKT_RKT0_
                0x00000000       0x54 bn_sprite_text_generator.o
 .text._ZN3_bn6assert9show_argsIA15_cEEvPKcS4_S4_iRKT_
                0x00000000       0x48 bn_sprite_text_generator.o
 .text._ZN2bn12_GLOBAL__N_122_build_sprite_optionalILNS_11sprite_sizeE1EEEPNS_4tileERKNS_21sprite_text_generatorERKNS_18sprite_palette_ptrERKNS_13fixed_point_tILi12EEERNS_7ivectorINS_10sprite_ptrEEE
                0x00000000      0x1c0 bn_sprite_text_generator.o
 .text._ZN2bn12_GLOBAL__N_122_build_sprite_optionalILNS_11sprite_sizeE2EEEPNS_4tileERKNS_21sprite_text_generatorERKNS_18sprite_palette_ptrERKNS_13fixed_point_tILi12EEERNS_7ivectorINS_10sprite_ptrEEE
                0x00000000      0x1c0 bn_sprite_text_generator.o
 .text._ZNK2bn21sprite_text_generator8generateERKNS_13fixed_point_tILi12EEERKNS_11string_viewERNS_7ivectorINS_10sprite_ptrEEE
                0x00000000       0x34 bn_sprite_text_generator.o
 .rodata._ZN2bn12_GLOBAL__N_19_generateILb1EEEbRKNS_21sprite_text_generatorERKNS_13fixed_point_tILi12EEERKNS_11string_viewERKNS_23utf8_characters_map_refEiibRNS_7ivectorINS_10sprite_ptrEEE.str1.4
                0x00000000       0x35 bn_sprite_text_generator.o
 .text._ZN2bn12_GLOBAL__N_19_generateILb1EEEbRKNS_21sprite_text_generatorERKNS_13fixed_point_tILi12EEERKNS_11string_viewERKNS_23utf8_characters_map_refEiibRNS_7ivectorINS_10sprite_ptrEEE
                0x00000000     0x1400 bn_sprite_text_generator.o
 .text._ZNK2bn21sprite_text_generator17generate_optionalENS_7fixed_tILi12EEES2_RKNS_11string_viewERNS_7ivectorINS_10sprite_ptrEEE
                0x00000000       0x40 bn_sprite_text_generator.o
 .text._ZNK2bn21sprite_text_generator17generate_optionalERKNS_13fixed_point_tILi12EEERKNS_11string_viewERNS_7ivectorINS_10sprite_ptrEEE
                0x00000000       0x34 bn_sprite_text_generator.o
 .group         0x00000000        0xc bn_sprite_tiles_manager.o
 .group         0x00000000        0xc bn_sprite_tiles_manager.o
 .group         0x00000000        0xc bn_sprite_tiles_manager.o
 .group         0x00000000        0xc bn_sprite_tiles_manager.o
 .group         0x00000000        0xc bn_sprite_tiles_manager.o
 .group         0x00000000        0xc bn_sprite_tiles_manager.o
 .group         0x00000000        0xc bn_sprite_tiles_manager.o
 .group         0x00000000        0xc bn_sprite_tiles_manager.o
 .group         0x00000000        0xc bn_sprite_tiles_manager.o
 .group         0x00000000        0xc bn_sprite_tiles_manager.o
 .group         0x00000000        0xc bn_sprite_tiles_manager.o
 .group         0x00000000        0xc bn_sprite_tiles_manager.o
 .group         0x00000000        0xc bn_sprite_tiles_manager.o
 .group         0x00000000        0xc bn_sprite_tiles_manager.o
 .group         0x00000000        0xc bn_sprite_tiles_manager.o
 .group         0x00000000        0xc bn_sprite_tiles_manager.o
 .group         0x00000000        0xc bn_sprite_tiles_manager.o
 .group         0x00000000        0xc bn_sprite_tiles_manager.o
 .group         0x00000000        0xc bn_sprite_tiles_manager.o
 .group         0x00000000        0xc bn_sprite_tiles_manager.o
 .group         0x00000000        0xc bn_sprite_tiles_manager.o
 .group         0x00000000        0xc bn_sprite_tiles_manager.o
 .text          0x00000000        0x0 bn_sprite_tiles_manager.o
 .data          0x00000000        0x0 bn_sprite_tiles_manager.o
 .bss           0x00000000        0x0 bn_sprite_tiles_manager.o
 .text._ZN2bn13ostringstream11append_argsIiJA4_ciEEEvRKT_DpRKT0_.isra.0
                0x00000000       0x24 bn_sprite_tiles_manager.o
 .text._ZN2bn12sprite_tiles16used_tiles_countEv
                0x00000000       0x18 bn_sprite_tiles_manager.o
 .text._ZN2bn12sprite_tiles21available_tiles_countEv
                0x00000000       0x10 bn_sprite_tiles_manager.o
 .text._ZN2bn12sprite_tiles16used_items_countEv
                0x00000000       0x10 bn_sprite_tiles_manager.o
 .text._ZN2bn12sprite_tiles21available_items_countEv
                0x00000000       0x10 bn_sprite_tiles_manager.o
 .text._ZN2bn16sprite_tiles_ptrC2ERKS0_
                0x00000000       0x18 bn_sprite_tiles_manager.o
 .text._ZNK2bn16sprite_tiles_ptr11compressionEv
                0x00000000       0x18 bn_sprite_tiles_manager.o
 .text._ZN2bn20sprite_tiles_manager16used_tiles_countEv
                0x00000000       0x18 bn_sprite_tiles_manager.o
 .text._ZN2bn20sprite_tiles_manager21available_tiles_countEv
                0x00000000       0x10 bn_sprite_tiles_manager.o
 .text._ZN2bn20sprite_tiles_manager16used_items_countEv
                0x00000000       0x10 bn_sprite_tiles_manager.o
 .text._ZN2bn20sprite_tiles_manager21available_items_countEv
                0x00000000       0x10 bn_sprite_tiles_manager.o
 .text._ZN2bn12sprite_tiles10log_statusEv
                0x00000000        0xc bn_sprite_tiles_manager.o
 .text._ZN2bn20sprite_tiles_manager15increase_usagesEi
                0x00000000       0x14 bn_sprite_tiles_manager.o
 .text._ZN2bn20sprite_tiles_manager10start_tileEi
                0x00000000       0x14 bn_sprite_tiles_manager.o
 .text._ZN2bn20sprite_tiles_manager11tiles_countEi
                0x00000000       0x14 bn_sprite_tiles_manager.o
 .text._ZN2bn20sprite_tiles_manager11compressionEi
                0x00000000       0x14 bn_sprite_tiles_manager.o
 .text._ZN3_bn6assert9show_argsIA25_ciEEvPKcS4_S4_iRKT_RKT0_
                0x00000000       0x54 bn_sprite_tiles_manager.o
 .text._ZN3_bn6assert9show_argsIA54_cEEvPKcS4_S4_iRKT_
                0x00000000       0x48 bn_sprite_tiles_manager.o
 .text._ZN3_bn6assert9show_argsIJA25_ciA4_ctEEEvPKcS5_S5_iDpRKT_
                0x00000000       0x64 bn_sprite_tiles_manager.o
 .text._ZN3_bn6assert9show_argsIJA58_ciA4_ciEEEvPKcS5_S5_iDpRKT_
                0x00000000       0x58 bn_sprite_tiles_manager.o
 .text._ZN3_bn6assert9show_argsIA19_cEEvPKcS4_S4_iRKT_
                0x00000000       0x48 bn_sprite_tiles_manager.o
 .text._ZN3_bn6assert9show_argsIA22_ciEEvPKcS4_S4_iRKT_RKT0_
                0x00000000       0x54 bn_sprite_tiles_manager.o
 .text._ZN3_bn6assert9show_argsIA27_ciEEvPKcS4_S4_iRKT_RKT0_
                0x00000000       0x54 bn_sprite_tiles_manager.o
 .text._ZN3_bn6assert9show_argsIA37_cEEvPKcS4_S4_iRKT_
                0x00000000       0x48 bn_sprite_tiles_manager.o
 .text._ZN3_bn6assert9show_argsIJA22_ciA4_ciEEEvPKcS5_S5_iDpRKT_
                0x00000000       0x58 bn_sprite_tiles_manager.o
 .text._ZN3_bn6assert9show_argsIJA46_ciA4_ciEEEvPKcS5_S5_iDpRKT_
                0x00000000       0x58 bn_sprite_tiles_manager.o
 .text._ZN3_bn6assert9show_argsIA17_cEEvPKcS4_S4_iRKT_
                0x00000000       0x48 bn_sprite_tiles_manager.o
 .text._ZN3_bn6assert9show_argsIA53_cEEvPKcS4_S4_iRKT_
                0x00000000       0x48 bn_sprite_tiles_manager.o
 .text._ZN3_bn6assert9show_argsIA15_cEEvPKcS4_S4_iRKT_
                0x00000000       0x48 bn_sprite_tiles_manager.o
 .rodata._ZN2bn20sprite_tiles_manager16reload_tiles_refEi.str1.4
                0x00000000       0x25 bn_sprite_tiles_manager.o
 .text._ZN2bn20sprite_tiles_manager16reload_tiles_refEi
                0x00000000       0x48 bn_sprite_tiles_manager.o
 .text._ZN2bn16sprite_tiles_ptr16reload_tiles_refEv
                0x00000000       0x4c bn_sprite_tiles_manager.o
 .text._ZN3_bn6assert9show_argsIA16_cEEvPKcS4_S4_iRKT_
                0x00000000       0x48 bn_sprite_tiles_manager.o
 .text._ZN2bn16sprite_tiles_ptraSERKS0_
                0x00000000       0x3c bn_sprite_tiles_manager.o
 .text._ZN2bn20sprite_tiles_manager4findERKNS_4spanIKNS_4tileEEENS_16compression_typeE
                0x00000000       0x14 bn_sprite_tiles_manager.o
 .text._ZN3_bn6assert9show_argsIA15_ciEEvPKcS4_S4_iRKT_RKT0_
                0x00000000       0x54 bn_sprite_tiles_manager.o
 .text._ZN3_bn6assert9show_argsIA39_ciEEvPKcS4_S4_iRKT_RKT0_
                0x00000000       0x54 bn_sprite_tiles_manager.o
 .text._ZN2bn16sprite_tiles_ptr4findERKNS_17sprite_tiles_itemE
                0x00000000       0x8c bn_sprite_tiles_manager.o
 .text._ZNK2bn17sprite_tiles_item10find_tilesEv
                0x00000000       0x10 bn_sprite_tiles_manager.o
 .text._ZN2bn16sprite_tiles_ptr4findERKNS_17sprite_tiles_itemEi
                0x00000000       0xc8 bn_sprite_tiles_manager.o
 .text._ZNK2bn17sprite_tiles_item10find_tilesEi
                0x00000000       0xc8 bn_sprite_tiles_manager.o
 .text._ZN2bn20sprite_tiles_manager9tiles_refEi
                0x00000000       0x38 bn_sprite_tiles_manager.o
 .text._ZNK2bn16sprite_tiles_ptr9tiles_refEv
                0x00000000       0x3c bn_sprite_tiles_manager.o
 .rodata._ZNK2bn17sprite_tiles_item10decompressENS_4spanINS_4tileEEE.str1.4
                0x00000000       0xb3 bn_sprite_tiles_manager.o
 .text._ZNK2bn17sprite_tiles_item10decompressENS_4spanINS_4tileEEE
                0x00000000      0x160 bn_sprite_tiles_manager.o
 .text._ZN3_bn6assert9show_argsIA26_cEEvPKcS4_S4_iRKT_
                0x00000000       0x48 bn_sprite_tiles_manager.o
 .text._ZN2bn20sprite_tiles_manager17allocate_optionalEiNS_8bpp_modeE
                0x00000000       0x8c bn_sprite_tiles_manager.o
 .text._ZN2bn16sprite_tiles_ptr17allocate_optionalEiNS_8bpp_modeE
                0x00000000       0x2c bn_sprite_tiles_manager.o
 .text._ZN2bn20sprite_tiles_manager15create_optionalERKNS_4spanIKNS_4tileEEENS_16compression_typeE
                0x00000000       0xec bn_sprite_tiles_manager.o
 .text._ZN2bn16sprite_tiles_ptr15create_optionalERKNS_17sprite_tiles_itemE
                0x00000000       0x98 bn_sprite_tiles_manager.o
 .text._ZNK2bn17sprite_tiles_item21create_tiles_optionalEv
                0x00000000       0x10 bn_sprite_tiles_manager.o
 .text._ZNK2bn17sprite_tiles_item25create_new_tiles_optionalEv
                0x00000000       0x10 bn_sprite_tiles_manager.o
 .text._ZN2bn16sprite_tiles_ptr15create_optionalERKNS_17sprite_tiles_itemEi
                0x00000000       0xd0 bn_sprite_tiles_manager.o
 .text._ZNK2bn17sprite_tiles_item21create_tiles_optionalEi
                0x00000000       0xd0 bn_sprite_tiles_manager.o
 .text._ZNK2bn17sprite_tiles_item25create_new_tiles_optionalEi
                0x00000000       0xd0 bn_sprite_tiles_manager.o
 .text._ZN2bn16sprite_tiles_ptr6createERKNS_17sprite_tiles_itemE
                0x00000000       0x84 bn_sprite_tiles_manager.o
 .text._ZNK2bn17sprite_tiles_item12create_tilesEv
                0x00000000       0x10 bn_sprite_tiles_manager.o
 .text._ZNK2bn17sprite_tiles_item16create_new_tilesEv
                0x00000000       0x10 bn_sprite_tiles_manager.o
 .text._ZNK2bn17sprite_tiles_item16create_new_tilesEi
                0x00000000       0xbc bn_sprite_tiles_manager.o
 .rodata._ZN2bn20sprite_tiles_manager13set_tiles_refEiRKNS_4spanIKNS_4tileEEENS_16compression_typeE.str1.4
                0x00000000       0x45 bn_sprite_tiles_manager.o
 .text._ZN2bn20sprite_tiles_manager13set_tiles_refEiRKNS_4spanIKNS_4tileEEENS_16compression_typeE
                0x00000000      0x26c bn_sprite_tiles_manager.o
 .text._ZN2bn16sprite_tiles_ptr13set_tiles_refERKNS_17sprite_tiles_itemE
                0x00000000       0x7c bn_sprite_tiles_manager.o
 .text._ZN2bn16sprite_tiles_ptr13set_tiles_refERKNS_17sprite_tiles_itemEi
                0x00000000       0xbc bn_sprite_tiles_manager.o
 .text          0x00000000        0x0 bn_sprites_manager.bn_iwram.o
 .data          0x00000000        0x0 bn_sprites_manager.bn_iwram.o
 .bss           0x00000000        0x0 bn_sprites_manager.bn_iwram.o
 .group         0x00000000        0xc bn_sprites_manager.o
 .group         0x00000000        0xc bn_sprites_manager.o
 .group         0x00000000        0xc bn_sprites_manager.o
 .group         0x00000000        0xc bn_sprites_manager.o
 .group         0x00000000        0xc bn_sprites_manager.o
 .group         0x00000000        0xc bn_sprites_manager.o
 .group         0x00000000        0xc bn_sprites_manager.o
 .group         0x00000000        0xc bn_sprites_manager.o
 .group         0x00000000        0xc bn_sprites_manager.o
 .group         0x00000000        0xc bn_sprites_manager.o
 .group         0x00000000        0xc bn_sprites_manager.o
 .group         0x00000000        0xc bn_sprites_manager.o
 .group         0x00000000        0xc bn_sprites_manager.o
 .group         0x00000000        0xc bn_sprites_manager.o
 .group         0x00000000        0xc bn_sprites_manager.o
 .group         0x00000000        0xc bn_sprites_manager.o
 .group         0x00000000        0xc bn_sprites_manager.o
 .group         0x00000000        0xc bn_sprites_manager.o
 .group         0x00000000        0xc bn_sprites_manager.o
 .group         0x00000000        0xc bn_sprites_manager.o
 .group         0x00000000        0xc bn_sprites_manager.o
 .group         0x00000000        0xc bn_sprites_manager.o
 .group         0x00000000        0xc bn_sprites_manager.o
 .group         0x00000000        0xc bn_sprites_manager.o
 .group         0x00000000        0xc bn_sprites_manager.o
 .group         0x00000000        0xc bn_sprites_manager.o
 .group         0x00000000        0xc bn_sprites_manager.o
 .group         0x00000000        0xc bn_sprites_manager.o
 .group         0x00000000        0xc bn_sprites_manager.o
 .group         0x00000000        0xc bn_sprites_manager.o
 .text          0x00000000        0x0 bn_sprites_manager.o
 .data          0x00000000        0x0 bn_sprites_manager.o
 .bss           0x00000000        0x0 bn_sprites_manager.o
 .text._ZN2bn15sprites_manager12_GLOBAL__N_123_update_item_shape_sizeERKNS_17sprite_shape_sizeERNS_20sprites_manager_itemE
                0x00000000       0x7c bn_sprites_manager.o
 .text._ZN2bn7sprites16used_items_countEv
                0x00000000        0xc bn_sprites_manager.o
 .text._ZN2bn7sprites21available_items_countEv
                0x00000000       0x10 bn_sprites_manager.o
 .text._ZN2bn7sprites7visibleEv
                0x00000000        0xc bn_sprites_manager.o
 .text._ZN2bn7sprites11set_visibleEb
                0x00000000        0xc bn_sprites_manager.o
 .text._ZN2bn7sprites23blending_bottom_enabledEv
                0x00000000        0xc bn_sprites_manager.o
 .text._ZN2bn7sprites27set_blending_bottom_enabledEb
                0x00000000        0xc bn_sprites_manager.o
 .text._ZN2bn7sprites22reserved_handles_countEv
                0x00000000       0x10 bn_sprites_manager.o
 .text._ZN2bn7sprites6reloadEv
                0x00000000       0x24 bn_sprites_manager.o
 .text._ZN2bn10sprite_ptrC2ERKS0_
                0x00000000        0xc bn_sprites_manager.o
 .text._ZNK2bn10sprite_ptr10shape_sizeEv
                0x00000000       0x14 bn_sprites_manager.o
 .text._ZNK2bn10sprite_ptr1xEv
                0x00000000        0x8 bn_sprites_manager.o
 .text._ZN2bn10sprite_ptr5set_xENS_7fixed_tILi12EEE
                0x00000000       0x48 bn_sprites_manager.o
 .text._ZNK2bn10sprite_ptr1yEv
                0x00000000        0x8 bn_sprites_manager.o
 .text._ZN2bn10sprite_ptr5set_yENS_7fixed_tILi12EEE
                0x00000000       0x48 bn_sprites_manager.o
 .text._ZNK2bn10sprite_ptr8positionEv
                0x00000000        0x8 bn_sprites_manager.o
 .text._ZN2bn10sprite_ptr12set_positionENS_7fixed_tILi12EEES2_
                0x00000000       0x70 bn_sprites_manager.o
 .text._ZN2bn10sprite_ptr12set_positionERKNS_13fixed_point_tILi12EEE
                0x00000000       0x7c bn_sprites_manager.o
 .text._ZNK2bn10sprite_ptr14rotation_angleEv
                0x00000000       0x1c bn_sprites_manager.o
 .text._ZNK2bn10sprite_ptr16horizontal_scaleEv
                0x00000000       0x1c bn_sprites_manager.o
 .text._ZNK2bn10sprite_ptr14vertical_scaleEv
                0x00000000       0x1c bn_sprites_manager.o
 .text._ZNK2bn10sprite_ptr16horizontal_shearEv
                0x00000000       0x1c bn_sprites_manager.o
 .text._ZNK2bn10sprite_ptr14vertical_shearEv
                0x00000000       0x1c bn_sprites_manager.o
 .text._ZNK2bn10sprite_ptr11bg_priorityEv
                0x00000000        0x8 bn_sprites_manager.o
 .text._ZNK2bn10sprite_ptr7z_orderEv
                0x00000000       0x10 bn_sprites_manager.o
 .text._ZNK2bn10sprite_ptr15horizontal_flipEv
                0x00000000       0x20 bn_sprites_manager.o
 .text._ZN2bn10sprite_ptr19set_horizontal_flipEb
                0x00000000       0x54 bn_sprites_manager.o
 .text._ZNK2bn10sprite_ptr13vertical_flipEv
                0x00000000       0x20 bn_sprites_manager.o
 .text._ZN2bn10sprite_ptr17set_vertical_flipEb
                0x00000000       0x54 bn_sprites_manager.o
 .text._ZNK2bn10sprite_ptr14mosaic_enabledEv
                0x00000000        0xc bn_sprites_manager.o
 .text._ZN2bn10sprite_ptr18set_mosaic_enabledEb
                0x00000000       0x40 bn_sprites_manager.o
 .text._ZNK2bn10sprite_ptr16blending_enabledEv
                0x00000000        0xc bn_sprites_manager.o
 .text._ZNK2bn10sprite_ptr14window_enabledEv
                0x00000000        0xc bn_sprites_manager.o
 .text._ZNK2bn10sprite_ptr11double_sizeEv
                0x00000000        0xc bn_sprites_manager.o
 .text._ZNK2bn10sprite_ptr16double_size_modeEv
                0x00000000        0xc bn_sprites_manager.o
 .text._ZNK2bn10sprite_ptr7visibleEv
                0x00000000        0xc bn_sprites_manager.o
 .text._ZN2bn10sprite_ptr11set_visibleEb
                0x00000000       0x64 bn_sprites_manager.o
 .text._ZNK2bn10sprite_ptr6cameraEv
                0x00000000        0x8 bn_sprites_manager.o
 .text._ZN2bn10sprite_ptr13remove_cameraEv
                0x00000000       0x7c bn_sprites_manager.o
 .text._ZNK2bn10sprite_ptr10affine_matEv
                0x00000000        0x8 bn_sprites_manager.o
 .text._ZNK2bn10sprite_ptr33remove_affine_mat_when_not_neededEv
                0x00000000        0xc bn_sprites_manager.o
 .text._ZN2bn10sprite_ptr37set_remove_affine_mat_when_not_neededEb
                0x00000000       0x1c bn_sprites_manager.o
 .text._ZNK2bn11sprite_item10decompressENS_4spanINS_4tileEEENS1_INS_5colorEEE
                0x00000000       0x4c bn_sprites_manager.o
 .text._ZN2bn14sprite_builderC2ERKNS_11sprite_itemE
                0x00000000       0x6c bn_sprites_manager.o
 .text._ZNK2bn14sprite_builder14rotation_angleEv
                0x00000000       0x18 bn_sprites_manager.o
 .text._ZNK2bn14sprite_builder16horizontal_scaleEv
                0x00000000       0x1c bn_sprites_manager.o
 .text._ZNK2bn14sprite_builder14vertical_scaleEv
                0x00000000       0x1c bn_sprites_manager.o
 .text._ZNK2bn14sprite_builder16horizontal_shearEv
                0x00000000       0x18 bn_sprites_manager.o
 .text._ZN2bn14sprite_builder20set_horizontal_shearENS_7fixed_tILi12EEE
                0x00000000       0xac bn_sprites_manager.o
 .text._ZNK2bn14sprite_builder14vertical_shearEv
                0x00000000       0x18 bn_sprites_manager.o
 .text._ZN2bn14sprite_builder18set_vertical_shearENS_7fixed_tILi12EEE
                0x00000000       0xac bn_sprites_manager.o
 .text._ZN2bn14sprite_builder9set_shearENS_7fixed_tILi12EEE
                0x00000000       0xb4 bn_sprites_manager.o
 .text._ZN2bn14sprite_builder9set_shearENS_7fixed_tILi12EEES2_
                0x00000000       0xb8 bn_sprites_manager.o
 .text._ZNK2bn14sprite_builder15horizontal_flipEv
                0x00000000       0x1c bn_sprites_manager.o
 .text._ZN2bn14sprite_builder19set_horizontal_flipEb
                0x00000000       0x1c bn_sprites_manager.o
 .text._ZNK2bn14sprite_builder13vertical_flipEv
                0x00000000       0x1c bn_sprites_manager.o
 .text._ZN2bn14sprite_builder17set_vertical_flipEb
                0x00000000       0x1c bn_sprites_manager.o
 .text._ZNK2bn14sprite_builder14tiles_optionalEv
                0x00000000       0x8c bn_sprites_manager.o
 .text._ZNK2bn14sprite_builder16palette_optionalEv
                0x00000000       0x80 bn_sprites_manager.o
 .text._ZN2bn14sprite_builder22release_tiles_optionalEv
                0x00000000       0xa0 bn_sprites_manager.o
 .text._ZN2bn14sprite_builder24release_palette_optionalEv
                0x00000000       0x94 bn_sprites_manager.o
 .text._ZN2bn14sprite_builder14set_affine_matERKNS_21sprite_affine_mat_ptrE
                0x00000000       0x2c bn_sprites_manager.o
 .text._ZN2bn14sprite_builder14set_affine_matEONS_21sprite_affine_mat_ptrE
                0x00000000       0x30 bn_sprites_manager.o
 .text._ZN2bn14sprite_builder14set_affine_matERKNS_8optionalINS_21sprite_affine_mat_ptrEEE
                0x00000000       0x40 bn_sprites_manager.o
 .text._ZN2bn14sprite_builder14set_affine_matEONS_8optionalINS_21sprite_affine_mat_ptrEEE
                0x00000000       0x48 bn_sprites_manager.o
 .text._ZN2bn31sprite_affine_second_attributesC2ENS_7fixed_tILi12EEERKNS_21sprite_affine_mat_ptrE
                0x00000000       0x14 bn_sprites_manager.o
 .text._ZN2bn31sprite_affine_second_attributesC2ENS_7fixed_tILi12EEEONS_21sprite_affine_mat_ptrE
                0x00000000       0x10 bn_sprites_manager.o
 .text._ZN2bn15sprites_manager16used_items_countEv
                0x00000000        0xc bn_sprites_manager.o
 .text._ZN2bn15sprites_manager21available_items_countEv
                0x00000000       0x10 bn_sprites_manager.o
 .text._ZN2bn15sprites_manager15increase_usagesEPv
                0x00000000        0x8 bn_sprites_manager.o
 .text._ZN2bn15sprites_manager12remove_tilesEPv
                0x00000000       0x1c bn_sprites_manager.o
 .text._ZN2bn15sprites_manager14remove_paletteEPv
                0x00000000       0x1c bn_sprites_manager.o
 .text._ZN2bn15sprites_manager8positionEPv
                0x00000000        0x4 bn_sprites_manager.o
 .text._ZN2bn15sprites_manager5set_xEPvNS_7fixed_tILi12EEE
                0x00000000       0x48 bn_sprites_manager.o
 .text._ZN2bn15sprites_manager5set_yEPvNS_7fixed_tILi12EEE
                0x00000000       0x44 bn_sprites_manager.o
 .text._ZN2bn15sprites_manager12set_positionEPvRKNS_13fixed_point_tILi12EEE
                0x00000000       0x78 bn_sprites_manager.o
 .text._ZN2bn15sprites_manager11bg_priorityEPv
                0x00000000        0x4 bn_sprites_manager.o
 .text._ZN2bn15sprites_manager7z_orderEPv
                0x00000000       0x10 bn_sprites_manager.o
 .text._ZN2bn15sprites_manager15horizontal_flipEPv
                0x00000000       0x20 bn_sprites_manager.o
 .text._ZN2bn15sprites_manager19set_horizontal_flipEPvb
                0x00000000       0x50 bn_sprites_manager.o
 .text._ZN2bn15sprites_manager13vertical_flipEPv
                0x00000000       0x20 bn_sprites_manager.o
 .text._ZN2bn15sprites_manager17set_vertical_flipEPvb
                0x00000000       0x50 bn_sprites_manager.o
 .text._ZN2bn15sprites_manager14mosaic_enabledEPv
                0x00000000        0x8 bn_sprites_manager.o
 .text._ZN2bn15sprites_manager18set_mosaic_enabledEPvb
                0x00000000       0x40 bn_sprites_manager.o
 .text._ZN2bn15sprites_manager16blending_enabledEPv
                0x00000000        0xc bn_sprites_manager.o
 .text._ZN2bn15sprites_manager14window_enabledEPv
                0x00000000        0x8 bn_sprites_manager.o
 .text._ZN2bn15sprites_manager11double_sizeEPv
                0x00000000        0xc bn_sprites_manager.o
 .text._ZN2bn15sprites_manager16double_size_modeEPv
                0x00000000        0xc bn_sprites_manager.o
 .text._ZN2bn15sprites_manager7visibleEPv
                0x00000000        0xc bn_sprites_manager.o
 .text._ZN2bn15sprites_manager11set_visibleEPvb
                0x00000000       0x64 bn_sprites_manager.o
 .text._ZN2bn15sprites_manager6cameraEPv
                0x00000000        0x4 bn_sprites_manager.o
 .text._ZN2bn15sprites_manager10set_cameraEPvONS_10camera_ptrE
                0x00000000       0xa4 bn_sprites_manager.o
 .text._ZN2bn10sprite_ptr10set_cameraERKNS_10camera_ptrE
                0x00000000       0x24 bn_sprites_manager.o
 .text._ZN2bn10sprite_ptr10set_cameraEONS_10camera_ptrE
                0x00000000       0x10 bn_sprites_manager.o
 .text._ZN2bn10sprite_ptr10set_cameraERKNS_8optionalINS_10camera_ptrEEE
                0x00000000       0x98 bn_sprites_manager.o
 .text._ZN2bn10sprite_ptr10set_cameraEONS_8optionalINS_10camera_ptrEEE
                0x00000000       0x88 bn_sprites_manager.o
 .text._ZN2bn15sprites_manager13remove_cameraEPv
                0x00000000       0x7c bn_sprites_manager.o
 .text._ZN2bn15sprites_manager33remove_affine_mat_when_not_neededEPv
                0x00000000        0xc bn_sprites_manager.o
 .text._ZN2bn15sprites_manager37set_remove_affine_mat_when_not_neededEPvb
                0x00000000       0x1c bn_sprites_manager.o
 .text._ZN2bn15sprites_manager22reserved_handles_countEv
                0x00000000       0x10 bn_sprites_manager.o
 .text._ZN2bn15sprites_manager6reloadEPv
                0x00000000       0x58 bn_sprites_manager.o
 .text._ZN2bn15sprites_manager15reload_blendingEv
                0x00000000       0xd4 bn_sprites_manager.o
 .text._ZN2bn15sprites_manager10reload_allEv
                0x00000000       0x24 bn_sprites_manager.o
 .text._ZN3_bn6assert9show_argsIA54_cEEvPKcS4_S4_iRKT_
                0x00000000       0x48 bn_sprites_manager.o
 .text._ZN2bn14sprite_builder20set_blending_enabledEb
                0x00000000       0x3c bn_sprites_manager.o
 .rodata._ZN2bn14sprite_builder18set_window_enabledEb.str1.4
                0x00000000       0x13 bn_sprites_manager.o
 .text._ZN2bn14sprite_builder18set_window_enabledEb
                0x00000000       0x3c bn_sprites_manager.o
 .text._ZN2bn15sprites_manager20set_blending_enabledEPvb
                0x00000000       0x9c bn_sprites_manager.o
 .text._ZN2bn15sprites_manager18set_window_enabledEPvb
                0x00000000       0x6c bn_sprites_manager.o
 .text._ZN2bn15sprites_manager20set_first_attributesEPvRKNS_23sprite_first_attributesE
                0x00000000       0xe8 bn_sprites_manager.o
 .text._ZN2bn10sprite_ptr20set_first_attributesERKNS_23sprite_first_attributesE
                0x00000000       0x10 bn_sprites_manager.o
 .rodata._ZN2bn15sprites_manager16first_attributesEPv.str1.4
                0x00000000       0x35 bn_sprites_manager.o
 .text._ZN2bn15sprites_manager16first_attributesEPv
                0x00000000       0x5c bn_sprites_manager.o
 .text._ZNK2bn10sprite_ptr16first_attributesEv
                0x00000000       0x60 bn_sprites_manager.o
 .text._ZN2bn10sprite_ptr18set_window_enabledEb
                0x00000000       0x70 bn_sprites_manager.o
 .text._ZN2bn10sprite_ptr20set_blending_enabledEb
                0x00000000       0x9c bn_sprites_manager.o
 .text._ZN3_bn6assert9show_argsIA16_ciEEvPKcS4_S4_iRKT_RKT0_
                0x00000000       0x54 bn_sprites_manager.o
 .text._ZN3_bn6assert9show_argsIA17_ciEEvPKcS4_S4_iRKT_RKT0_
                0x00000000       0x54 bn_sprites_manager.o
 .rodata._ZNK2bn10sprite_ptr10dimensionsEv.str1.4
                0x00000000       0x4d bn_sprites_manager.o
 .text._ZNK2bn10sprite_ptr10dimensionsEv
                0x00000000       0x68 bn_sprites_manager.o
 .text._ZN2bn15sprites_manager10dimensionsEPv
                0x00000000       0x68 bn_sprites_manager.o
 .text._ZN3_bn6assert9show_argsIA15_ciEEvPKcS4_S4_iRKT_RKT0_
                0x00000000       0x54 bn_sprites_manager.o
 .text._ZN3_bn6assert9show_argsIA22_cEEvPKcS4_S4_iRKT_
                0x00000000       0x48 bn_sprites_manager.o
 .text._ZN2bn15sprites_manager17remove_affine_matEPv
                0x00000000       0x18 bn_sprites_manager.o
 .text._ZN2bn10sprite_ptr17remove_affine_matEv
                0x00000000       0x1c bn_sprites_manager.o
 .text._ZN2bn15sprites_manager5tilesEPv
                0x00000000       0x34 bn_sprites_manager.o
 .text._ZNK2bn10sprite_ptr5tilesEv
                0x00000000       0x38 bn_sprites_manager.o
 .text._ZNK2bn10sprite_ptr7paletteEv
                0x00000000       0x38 bn_sprites_manager.o
 .text._ZNK2bn14sprite_builder7paletteEv
                0x00000000       0x4c bn_sprites_manager.o
 .text._ZNK2bn14sprite_builder5tilesEv
                0x00000000       0x4c bn_sprites_manager.o
 .text._ZN3_bn6assert9show_argsIA27_chEEvPKcS4_S4_iRKT_RKT0_
                0x00000000       0x54 bn_sprites_manager.o
 .text._ZNK2bn20sprites_manager_item15new_double_sizeEi.part.0
                0x00000000       0x30 bn_sprites_manager.o
 .text._ZN2bn15sprites_manager20set_double_size_modeEPvNS_23sprite_double_size_modeE
                0x00000000       0x94 bn_sprites_manager.o
 .text._ZN2bn15sprites_manager12_GLOBAL__N_118_assign_affine_matEbRNS_20sprites_manager_itemEONS_21sprite_affine_mat_ptrE
                0x00000000      0x11c bn_sprites_manager.o
 .text._ZN2bn15sprites_manager18set_new_affine_matEPvRNS_21affine_mat_attributesE
                0x00000000       0x7c bn_sprites_manager.o
 .text._ZN2bn10sprite_ptr20set_horizontal_shearENS_7fixed_tILi12EEE
                0x00000000       0x4c bn_sprites_manager.o
 .text._ZN2bn10sprite_ptr18set_vertical_shearENS_7fixed_tILi12EEE
                0x00000000       0x4c bn_sprites_manager.o
 .text._ZN2bn10sprite_ptr9set_shearENS_7fixed_tILi12EEE
                0x00000000       0x50 bn_sprites_manager.o
 .text._ZN2bn10sprite_ptr9set_shearENS_7fixed_tILi12EEES2_
                0x00000000       0x54 bn_sprites_manager.o
 .text._ZN2bn15sprites_manager14set_affine_matEPvRKNS_21sprite_affine_mat_ptrE
                0x00000000       0x3c bn_sprites_manager.o
 .text._ZN2bn15sprites_manager14set_affine_matEPvONS_21sprite_affine_mat_ptrE
                0x00000000       0x2c bn_sprites_manager.o
 .text._ZN2bn10sprite_ptr14set_affine_matEONS_21sprite_affine_mat_ptrE
                0x00000000       0x2c bn_sprites_manager.o
 .text._ZN2bn10sprite_ptr14set_affine_matEONS_8optionalINS_21sprite_affine_mat_ptrEEE
                0x00000000       0x3c bn_sprites_manager.o
 .text._ZN2bn10sprite_ptr14set_affine_matERKNS_21sprite_affine_mat_ptrE
                0x00000000       0x3c bn_sprites_manager.o
 .text._ZN2bn10sprite_ptr14set_affine_matERKNS_8optionalINS_21sprite_affine_mat_ptrEEE
                0x00000000       0x50 bn_sprites_manager.o
 .text._ZN2bn10sprite_ptr20set_double_size_modeENS_23sprite_double_size_modeE
                0x00000000       0x94 bn_sprites_manager.o
 .text._ZN3_bn6assert9show_argsIA37_cEEvPKcS4_S4_iRKT_
                0x00000000       0x48 bn_sprites_manager.o
 .text._ZN3_bn6assert9show_argsIA18_ciEEvPKcS4_S4_iRKT_RKT0_
                0x00000000       0x54 bn_sprites_manager.o
 .text._ZN3_bn6assert9show_argsIJA22_ciA4_ciEEEvPKcS5_S5_iDpRKT_
                0x00000000       0x58 bn_sprites_manager.o
 .rodata._ZN2bn15sprites_manager9set_tilesEPvRKNS_16sprite_tiles_ptrE.str1.4
                0x00000000       0x65 bn_sprites_manager.o
 .text._ZN2bn15sprites_manager9set_tilesEPvRKNS_16sprite_tiles_ptrE
                0x00000000      0x12c bn_sprites_manager.o
 .text._ZN2bn10sprite_ptr9set_tilesERKNS_16sprite_tiles_ptrE
                0x00000000       0x10 bn_sprites_manager.o
 .text._ZN2bn15sprites_manager9set_tilesEPvONS_16sprite_tiles_ptrE
                0x00000000      0x134 bn_sprites_manager.o
 .text._ZN2bn10sprite_ptr9set_tilesEONS_16sprite_tiles_ptrE
                0x00000000       0x10 bn_sprites_manager.o
 .text._ZN2bn10sprite_ptr9set_tilesERKNS_17sprite_tiles_itemE
                0x00000000       0x7c bn_sprites_manager.o
 .text._ZN2bn10sprite_ptr9set_tilesERKNS_17sprite_tiles_itemEi
                0x00000000       0x88 bn_sprites_manager.o
 .text._ZN3_bn6assert9show_argsIJA25_ciA4_ciEEEvPKcS5_S5_iDpRKT_
                0x00000000       0x58 bn_sprites_manager.o
 .rodata._ZN2bn14sprite_builderC2ERKNS_11sprite_itemEi.str1.4
                0x00000000       0x65 bn_sprites_manager.o
 .text._ZN2bn14sprite_builderC2ERKNS_11sprite_itemEi
                0x00000000       0xb0 bn_sprites_manager.o
 .text._ZN3_bn6assert9show_argsIA22_ciEEvPKcS4_S4_iRKT_RKT0_
                0x00000000       0x54 bn_sprites_manager.o
 .rodata._ZN2bn23sprite_third_attributesC2ENS_16sprite_tiles_ptrENS_18sprite_palette_ptrEi.str1.4
                0x00000000       0x39 bn_sprites_manager.o
 .text._ZN2bn23sprite_third_attributesC2ENS_16sprite_tiles_ptrENS_18sprite_palette_ptrEi
                0x00000000       0x4c bn_sprites_manager.o
 .text._ZN2bn23sprite_third_attributes15set_bg_priorityEi
                0x00000000       0x38 bn_sprites_manager.o
 .text._ZN2bn15sprites_manager16third_attributesEPv
                0x00000000       0xa4 bn_sprites_manager.o
 .text._ZNK2bn10sprite_ptr16third_attributesEv
                0x00000000       0x14 bn_sprites_manager.o
 .text._ZN3_bn6assert9show_argsIA27_cEEvPKcS4_S4_iRKT_
                0x00000000       0x48 bn_sprites_manager.o
 .text._ZN3_bn6assert9show_argsIA31_cEEvPKcS4_S4_iRKT_
                0x00000000       0x48 bn_sprites_manager.o
 .text._ZN3_bn6assert9show_argsIJA30_ciA4_ciEEEvPKcS5_S5_iDpRKT_
                0x00000000       0x58 bn_sprites_manager.o
 .rodata._ZN2bn15sprites_manager9set_tilesEPvRKNS_17sprite_shape_sizeERKNS_16sprite_tiles_ptrE.str1.4
                0x00000000       0x62 bn_sprites_manager.o
 .text._ZN2bn15sprites_manager9set_tilesEPvRKNS_17sprite_shape_sizeERKNS_16sprite_tiles_ptrE
                0x00000000      0x13c bn_sprites_manager.o
 .text._ZN2bn10sprite_ptr9set_tilesERKNS_17sprite_shape_sizeERKNS_16sprite_tiles_ptrE
                0x00000000       0x10 bn_sprites_manager.o
 .text._ZN2bn15sprites_manager9set_tilesEPvRKNS_17sprite_shape_sizeEONS_16sprite_tiles_ptrE
                0x00000000      0x144 bn_sprites_manager.o
 .text._ZN2bn10sprite_ptr9set_tilesERKNS_17sprite_shape_sizeEONS_16sprite_tiles_ptrE
                0x00000000       0x10 bn_sprites_manager.o
 .text._ZN2bn10sprite_ptr9set_tilesERKNS_17sprite_tiles_itemERKNS_17sprite_shape_sizeE
                0x00000000       0x88 bn_sprites_manager.o
 .text._ZN2bn10sprite_ptr9set_tilesERKNS_17sprite_tiles_itemERKNS_17sprite_shape_sizeEi
                0x00000000       0x94 bn_sprites_manager.o
 .text._ZN3_bn6assert9show_argsIJA28_ciA4_ciEEEvPKcS5_S5_iDpRKT_
                0x00000000       0x58 bn_sprites_manager.o
 .rodata._ZN2bn15sprites_manager11set_paletteEPvNS_8bpp_modeERKNS_18sprite_palette_ptrE.str1.4
                0x00000000       0x28 bn_sprites_manager.o
 .text._ZN2bn15sprites_manager11set_paletteEPvNS_8bpp_modeERKNS_18sprite_palette_ptrE
                0x00000000       0xb0 bn_sprites_manager.o
 .text._ZN2bn10sprite_ptr11set_paletteERKNS_18sprite_palette_ptrE
                0x00000000       0x4c bn_sprites_manager.o
 .text._ZN2bn15sprites_manager11set_paletteEPvNS_8bpp_modeEONS_18sprite_palette_ptrE
                0x00000000       0xb8 bn_sprites_manager.o
 .text._ZN2bn10sprite_ptr11set_paletteEONS_18sprite_palette_ptrE
                0x00000000       0x4c bn_sprites_manager.o
 .text._ZN2bn10sprite_ptr11set_paletteERKNS_19sprite_palette_itemE
                0x00000000       0xe0 bn_sprites_manager.o
 .text._ZN3_bn6assert9show_argsIJA39_ciA4_ciEEEvPKcS5_S5_iDpRKT_
                0x00000000       0x58 bn_sprites_manager.o
 .rodata._ZN2bn15sprites_manager21set_tiles_and_paletteEPvRKNS_17sprite_shape_sizeEONS_16sprite_tiles_ptrEONS_18sprite_palette_ptrE.str1.4
                0x00000000       0x73 bn_sprites_manager.o
 .text._ZN2bn15sprites_manager21set_tiles_and_paletteEPvRKNS_17sprite_shape_sizeEONS_16sprite_tiles_ptrEONS_18sprite_palette_ptrE
                0x00000000      0x1e8 bn_sprites_manager.o
 .text._ZN2bn10sprite_ptr21set_tiles_and_paletteENS_16sprite_tiles_ptrENS_18sprite_palette_ptrE
                0x00000000       0x28 bn_sprites_manager.o
 .text._ZN2bn10sprite_ptr21set_tiles_and_paletteERKNS_17sprite_shape_sizeENS_16sprite_tiles_ptrENS_18sprite_palette_ptrE
                0x00000000       0x10 bn_sprites_manager.o
 .text._ZN2bn10sprite_ptr8set_itemERKNS_11sprite_itemE
                0x00000000      0x164 bn_sprites_manager.o
 .text._ZN2bn10sprite_ptr8set_itemERKNS_11sprite_itemEi
                0x00000000      0x164 bn_sprites_manager.o
 .text._ZN3_bn6assert9show_argsIA20_cEEvPKcS4_S4_iRKT_
                0x00000000       0x48 bn_sprites_manager.o
 .rodata._ZN2bn15sprites_manager25regular_second_attributesEPv.str1.4
                0x00000000       0x30 bn_sprites_manager.o
 .text._ZN2bn15sprites_manager25regular_second_attributesEPv
                0x00000000       0x4c bn_sprites_manager.o
 .rodata._ZN2bn15sprites_manager29set_regular_second_attributesEPvRKNS_32sprite_regular_second_attributesE.str1.4
                0x00000000       0x1e bn_sprites_manager.o
 .text._ZN2bn15sprites_manager29set_regular_second_attributesEPvRKNS_32sprite_regular_second_attributesE
                0x00000000       0x94 bn_sprites_manager.o
 .text._ZN2bn10sprite_ptr29set_regular_second_attributesERKNS_32sprite_regular_second_attributesE
                0x00000000       0x10 bn_sprites_manager.o
 .text._ZNK2bn10sprite_ptr25regular_second_attributesEv
                0x00000000       0x4c bn_sprites_manager.o
 .text._ZN3_bn6assert9show_argsIA19_cEEvPKcS4_S4_iRKT_
                0x00000000       0x48 bn_sprites_manager.o
 .rodata._ZN2bn15sprites_manager28set_affine_second_attributesEPvRKNS_31sprite_affine_second_attributesE.str1.4
                0x00000000       0x33 bn_sprites_manager.o
 .text._ZN2bn15sprites_manager28set_affine_second_attributesEPvRKNS_31sprite_affine_second_attributesE
                0x00000000       0xb0 bn_sprites_manager.o
 .rodata._ZN2bn15sprites_manager24affine_second_attributesEPv.str1.4
                0x00000000       0x19 bn_sprites_manager.o
 .text._ZN2bn15sprites_manager24affine_second_attributesEPv
                0x00000000       0x44 bn_sprites_manager.o
 .text._ZNK2bn10sprite_ptr24affine_second_attributesEv
                0x00000000       0x48 bn_sprites_manager.o
 .text._ZN2bn10sprite_ptr28set_affine_second_attributesERKNS_31sprite_affine_second_attributesE
                0x00000000       0xb0 bn_sprites_manager.o
 .text._ZN3_bn6assert9show_argsIA33_ciEEvPKcS4_S4_iRKT_RKT0_
                0x00000000       0x54 bn_sprites_manager.o
 .rodata._ZN2bn15sprites_manager26set_reserved_handles_countEi.str1.4
                0x00000000       0x8d bn_sprites_manager.o
 .text._ZN2bn15sprites_manager26set_reserved_handles_countEi
                0x00000000       0xa8 bn_sprites_manager.o
 .text._ZN2bn7sprites26set_reserved_handles_countEi
                0x00000000       0xa8 bn_sprites_manager.o
 .text._ZN3_bn6assert9show_argsIA13_cEEvPKcS4_S4_iRKT_
                0x00000000       0x48 bn_sprites_manager.o
 .text._ZN2bn15sprites_manager6createERKNS_13fixed_point_tILi12EEERKNS_17sprite_shape_sizeEONS_16sprite_tiles_ptrEONS_18sprite_palette_ptrE
                0x00000000      0x1dc bn_sprites_manager.o
 .text._ZN2bn10sprite_ptr6createENS_7fixed_tILi12EEES2_RKNS_11sprite_itemE
                0x00000000       0x48 bn_sprites_manager.o
 .text._ZN2bn10sprite_ptr6createENS_7fixed_tILi12EEES2_RKNS_11sprite_itemEi
                0x00000000       0x48 bn_sprites_manager.o
 .text._ZN2bn10sprite_ptr6createERKNS_13fixed_point_tILi12EEERKNS_11sprite_itemE
                0x00000000       0x44 bn_sprites_manager.o
 .text._ZN2bn10sprite_ptr6createERKNS_13fixed_point_tILi12EEERKNS_11sprite_itemEi
                0x00000000       0x44 bn_sprites_manager.o
 .rodata._ZN2bn10sprite_ptr6createENS_7fixed_tILi12EEES2_RKNS_17sprite_shape_sizeENS_16sprite_tiles_ptrENS_18sprite_palette_ptrE.str1.4
                0x00000000       0x51 bn_sprites_manager.o
 .text._ZN2bn10sprite_ptr6createENS_7fixed_tILi12EEES2_RKNS_17sprite_shape_sizeENS_16sprite_tiles_ptrENS_18sprite_palette_ptrE
                0x00000000       0x98 bn_sprites_manager.o
 .text._ZN2bn10sprite_ptr6createERKNS_13fixed_point_tILi12EEERKNS_17sprite_shape_sizeENS_16sprite_tiles_ptrENS_18sprite_palette_ptrE
                0x00000000       0x94 bn_sprites_manager.o
 .text._ZNK2bn11sprite_item13create_spriteERKNS_13fixed_point_tILi12EEEi
                0x00000000       0x44 bn_sprites_manager.o
 .text._ZNK2bn11sprite_item13create_spriteERKNS_13fixed_point_tILi12EEE
                0x00000000       0x40 bn_sprites_manager.o
 .text._ZNK2bn11sprite_item13create_spriteENS_7fixed_tILi12EEES2_i
                0x00000000       0x48 bn_sprites_manager.o
 .text._ZNK2bn11sprite_item13create_spriteENS_7fixed_tILi12EEES2_
                0x00000000       0x44 bn_sprites_manager.o
 .text._ZN2bn15sprites_manager15create_optionalERKNS_13fixed_point_tILi12EEERKNS_17sprite_shape_sizeEONS_16sprite_tiles_ptrEONS_18sprite_palette_ptrE
                0x00000000      0x1b8 bn_sprites_manager.o
 .text._ZN2bn10sprite_ptr6createERKNS_14sprite_builderE
                0x00000000       0xf8 bn_sprites_manager.o
 .text._ZNK2bn14sprite_builder5buildEv
                0x00000000       0x10 bn_sprites_manager.o
 .text._ZN2bn14sprite_builder13release_buildEv
                0x00000000       0x14 bn_sprites_manager.o
 .text._ZN2bn15sprites_manager15create_optionalEONS_14sprite_builderE
                0x00000000      0x1ac bn_sprites_manager.o
 .text._ZN3_bn6assert9show_argsIA14_cEEvPKcS4_S4_iRKT_
                0x00000000       0x48 bn_sprites_manager.o
 .text._ZN2bn15sprites_manager9put_aboveEPv
                0x00000000       0x74 bn_sprites_manager.o
 .text._ZN2bn10sprite_ptr9put_aboveEv
                0x00000000       0x10 bn_sprites_manager.o
 .rodata._ZN2bn15sprites_manager9put_belowEPv.str1.4
                0x00000000        0x5 bn_sprites_manager.o
 .text._ZN2bn15sprites_manager9put_belowEPv
                0x00000000       0x74 bn_sprites_manager.o
 .text._ZN2bn10sprite_ptr9put_belowEv
                0x00000000       0x10 bn_sprites_manager.o
 .text._ZN3_bn6assert9show_argsIA33_cEEvPKcS4_S4_iRKT_
                0x00000000       0x48 bn_sprites_manager.o
 .text._ZN2bn15sprites_manager15set_bg_priorityEPvi
                0x00000000      0x148 bn_sprites_manager.o
 .text._ZN2bn10sprite_ptr15set_bg_priorityEi
                0x00000000       0x10 bn_sprites_manager.o
 .text._ZN2bn15sprites_manager20set_third_attributesEPvRKNS_23sprite_third_attributesE
                0x00000000       0x50 bn_sprites_manager.o
 .text._ZN2bn10sprite_ptr20set_third_attributesERKNS_23sprite_third_attributesE
                0x00000000       0x10 bn_sprites_manager.o
 .text._ZN2bn10sprite_ptraSERKS0_
                0x00000000       0x28 bn_sprites_manager.o
 .text._ZN2bn10sprite_ptr15create_optionalERKNS_13fixed_point_tILi12EEERKNS_11sprite_itemE
                0x00000000       0xdc bn_sprites_manager.o
 .text._ZN2bn10sprite_ptr15create_optionalENS_7fixed_tILi12EEES2_RKNS_11sprite_itemE
                0x00000000       0x20 bn_sprites_manager.o
 .text._ZNK2bn11sprite_item22create_sprite_optionalENS_7fixed_tILi12EEES2_
                0x00000000       0x20 bn_sprites_manager.o
 .text._ZNK2bn11sprite_item22create_sprite_optionalERKNS_13fixed_point_tILi12EEE
                0x00000000       0x18 bn_sprites_manager.o
 .text._ZN2bn10sprite_ptr15create_optionalERKNS_13fixed_point_tILi12EEERKNS_11sprite_itemEi
                0x00000000       0xe0 bn_sprites_manager.o
 .text._ZN2bn10sprite_ptr15create_optionalENS_7fixed_tILi12EEES2_RKNS_11sprite_itemEi
                0x00000000       0x24 bn_sprites_manager.o
 .text._ZNK2bn11sprite_item22create_sprite_optionalENS_7fixed_tILi12EEES2_i
                0x00000000       0x24 bn_sprites_manager.o
 .text._ZNK2bn11sprite_item22create_sprite_optionalERKNS_13fixed_point_tILi12EEEi
                0x00000000       0x18 bn_sprites_manager.o
 .rodata._ZN2bn10sprite_ptr15create_optionalENS_7fixed_tILi12EEES2_RKNS_17sprite_shape_sizeENS_16sprite_tiles_ptrENS_18sprite_palette_ptrE.str1.4
                0x00000000       0x10 bn_sprites_manager.o
 .text._ZN2bn10sprite_ptr15create_optionalENS_7fixed_tILi12EEES2_RKNS_17sprite_shape_sizeENS_16sprite_tiles_ptrENS_18sprite_palette_ptrE
                0x00000000       0xc0 bn_sprites_manager.o
 .text._ZN2bn10sprite_ptr15create_optionalERKNS_13fixed_point_tILi12EEERKNS_17sprite_shape_sizeENS_16sprite_tiles_ptrENS_18sprite_palette_ptrE
                0x00000000       0xb8 bn_sprites_manager.o
 .text._ZN2bn10sprite_ptr15create_optionalERKNS_14sprite_builderE
                0x00000000      0x11c bn_sprites_manager.o
 .text._ZNK2bn14sprite_builder14build_optionalEv
                0x00000000       0x10 bn_sprites_manager.o
 .text._ZN2bn10sprite_ptr15create_optionalEONS_14sprite_builderE
                0x00000000       0x3c bn_sprites_manager.o
 .text._ZN2bn14sprite_builder22release_build_optionalEv
                0x00000000       0x3c bn_sprites_manager.o
 .text._ZN2bn10sprite_ptr11set_z_orderEi
                0x00000000      0x148 bn_sprites_manager.o
 .text._ZN2bn15sprites_manager11set_z_orderEPvi
                0x00000000      0x14c bn_sprites_manager.o
 .text._ZN2bn13ostringstream6appendILi12EEEvNS_7fixed_tIXT_EEE
                0x00000000       0xa0 bn_sprites_manager.o
 .text._ZN3_bn6assert9show_argsIA38_cN2bn7fixed_tILi12EEEEEvPKcS7_S7_iRKT_RKT0_
                0x00000000       0x54 bn_sprites_manager.o
 .rodata._ZN2bn14sprite_builder18set_rotation_angleENS_7fixed_tILi12EEE.str1.4
                0x00000000       0x76 bn_sprites_manager.o
 .text._ZN2bn14sprite_builder18set_rotation_angleENS_7fixed_tILi12EEE
                0x00000000      0x13c bn_sprites_manager.o
 .text._ZN2bn10sprite_ptr18set_rotation_angleENS_7fixed_tILi12EEE
                0x00000000       0xc0 bn_sprites_manager.o
 .text._ZN3_bn6assert9show_argsIA27_cN2bn7fixed_tILi12EEEEEvPKcS7_S7_iRKT_RKT0_
                0x00000000       0x54 bn_sprites_manager.o
 .rodata._ZN2bn14sprite_builder20set_horizontal_scaleENS_7fixed_tILi12EEE.str1.4
                0x00000000       0x67 bn_sprites_manager.o
 .text._ZN2bn14sprite_builder20set_horizontal_scaleENS_7fixed_tILi12EEE
                0x00000000      0x10c bn_sprites_manager.o
 .text._ZN2bn10sprite_ptr20set_horizontal_scaleENS_7fixed_tILi12EEE
                0x00000000       0xb8 bn_sprites_manager.o
 .text._ZN3_bn6assert9show_argsIA25_cN2bn7fixed_tILi12EEEEEvPKcS7_S7_iRKT_RKT0_
                0x00000000       0x54 bn_sprites_manager.o
 .rodata._ZN2bn14sprite_builder18set_vertical_scaleENS_7fixed_tILi12EEE.str1.4
                0x00000000       0x41 bn_sprites_manager.o
 .text._ZN2bn14sprite_builder18set_vertical_scaleENS_7fixed_tILi12EEE
                0x00000000      0x10c bn_sprites_manager.o
 .rodata._ZN2bn14sprite_builder9set_scaleENS_7fixed_tILi12EEES2_.str1.4
                0x00000000        0xa bn_sprites_manager.o
 .text._ZN2bn14sprite_builder9set_scaleENS_7fixed_tILi12EEES2_
                0x00000000      0x1a8 bn_sprites_manager.o
 .text._ZN2bn10sprite_ptr18set_vertical_scaleENS_7fixed_tILi12EEE
                0x00000000       0xb8 bn_sprites_manager.o
 .text._ZN2bn10sprite_ptr9set_scaleENS_7fixed_tILi12EEES2_
                0x00000000      0x14c bn_sprites_manager.o
 .text._ZN3_bn6assert9show_argsIA16_cN2bn7fixed_tILi12EEEEEvPKcS7_S7_iRKT_RKT0_
                0x00000000       0x54 bn_sprites_manager.o
 .rodata._ZN2bn14sprite_builder9set_scaleENS_7fixed_tILi12EEE.str1.4
                0x00000000       0x1c bn_sprites_manager.o
 .text._ZN2bn14sprite_builder9set_scaleENS_7fixed_tILi12EEE
                0x00000000      0x110 bn_sprites_manager.o
 .text._ZN2bn10sprite_ptr9set_scaleENS_7fixed_tILi12EEE
                0x00000000       0xbc bn_sprites_manager.o
 .rodata        0x00000000       0x28 bn_sprites_manager.o
 .group         0x00000000        0xc bn_sstream.o
 .group         0x00000000        0xc bn_sstream.o
 .group         0x00000000        0xc bn_sstream.o
 .group         0x00000000        0xc bn_sstream.o
 .group         0x00000000        0xc bn_sstream.o
 .group         0x00000000        0xc bn_sstream.o
 .text          0x00000000        0x0 bn_sstream.o
 .data          0x00000000        0x0 bn_sstream.o
 .bss           0x00000000        0x0 bn_sstream.o
 .text._ZN2bn13ostringstream9set_rdbufERNS_12istring_baseE
                0x00000000        0x4 bn_sstream.o
 .text._ZNK2bn13ostringstream4viewEv
                0x00000000       0x10 bn_sstream.o
 .text._ZNK2bn13ostringstream6lengthEv
                0x00000000        0x8 bn_sstream.o
 .text._ZNK2bn13ostringstream8max_sizeEv
                0x00000000        0x8 bn_sstream.o
 .text._ZNK2bn13ostringstream9availableEv
                0x00000000        0xc bn_sstream.o
 .text._ZNK2bn13ostringstream5emptyEv
                0x00000000        0xc bn_sstream.o
 .text._ZNK2bn13ostringstream4fullEv
                0x00000000       0x10 bn_sstream.o
 .text._ZN2bn13ostringstream4swapERS0_
                0x00000000       0x14 bn_sstream.o
 .text._ZN3_bn6assert9show_argsIJA19_ciA4_ciEEEvPKcS5_S5_iDpRKT_
                0x00000000      0x194 bn_sstream.o
 .text._ZN2bn13ostringstream6appendERKNS_12istring_baseE
                0x00000000       0x74 bn_sstream.o
 .text._ZN2bn7istring6appendEPKc.isra.0
                0x00000000       0x94 bn_sstream.o
 .text._ZN3_bn6assert9show_argsIA26_ciEEvPKcS4_S4_iRKT_RKT0_
                0x00000000       0x50 bn_sstream.o
 .text._ZN2bn13ostringstream6appendEPKci
                0x00000000       0x98 bn_sstream.o
 .text._ZN2bn13ostringstream6appendEl
                0x00000000       0xb0 bn_sstream.o
 .text._ZN2bn13ostringstream6appendEm
                0x00000000       0xb0 bn_sstream.o
 .text._ZN2bn13ostringstream6appendEx
                0x00000000       0xb4 bn_sstream.o
 .text._ZN2bn13ostringstream6appendEy
                0x00000000       0xb4 bn_sstream.o
 .text._ZN3_bn6assert9show_argsIA15_cEEvPKcS4_S4_iRKT_
                0x00000000       0x40 bn_sstream.o
 .text._ZN3_bn6assert9show_argsIA11_cEEvPKcS4_S4_iRKT_
                0x00000000       0x40 bn_sstream.o
 .rodata._ZN2bn13ostringstream5rdbufEPNS_12istring_baseE.str1.4
                0x00000000       0x23 bn_sstream.o
 .text._ZN2bn13ostringstream5rdbufEPNS_12istring_baseE
                0x00000000       0x34 bn_sstream.o
 .text._ZN3_bn6assert9show_argsIA24_ciEEvPKcS4_S4_iRKT_RKT0_
                0x00000000       0x50 bn_sstream.o
 .rodata._ZN2bn13ostringstream9precisionEi.str1.4
                0x00000000       0x38 bn_sstream.o
 .text._ZN2bn13ostringstream9precisionEi
                0x00000000       0x38 bn_sstream.o
 .text._ZN3_bn6assert9show_argsIA20_ciEEvPKcS4_S4_iRKT_RKT0_
                0x00000000       0x50 bn_sstream.o
 .rodata._ZN2bn13ostringstream13set_precisionEi.str1.4
                0x00000000       0x34 bn_sstream.o
 .text._ZN2bn13ostringstream13set_precisionEi
                0x00000000       0x38 bn_sstream.o
 .group         0x00000000        0xc bn_translation_unit.o
 .group         0x00000000        0xc bn_translation_unit.o
 .group         0x00000000        0xc bn_translation_unit.o
 .group         0x00000000        0xc bn_translation_unit.o
 .group         0x00000000        0xc bn_translation_unit.o
 .group         0x00000000        0xc bn_translation_unit.o
 .group         0x00000000        0xc bn_translation_unit.o
 .group         0x00000000        0xc bn_translation_unit.o
 .group         0x00000000        0xc bn_translation_unit.o
 .group         0x00000000        0xc bn_translation_unit.o
 .group         0x00000000        0xc bn_translation_unit.o
 .group         0x00000000        0xc bn_translation_unit.o
 .group         0x00000000        0xc bn_translation_unit.o
 .group         0x00000000        0xc bn_translation_unit.o
 .group         0x00000000        0xc bn_translation_unit.o
 .group         0x00000000        0xc bn_translation_unit.o
 .group         0x00000000        0xc bn_translation_unit.o
 .group         0x00000000        0xc bn_translation_unit.o
 .group         0x00000000        0xc bn_translation_unit.o
 .group         0x00000000        0xc bn_translation_unit.o
 .group         0x00000000        0xc bn_translation_unit.o
 .group         0x00000000        0xc bn_translation_unit.o
 .group         0x00000000        0xc bn_translation_unit.o
 .group         0x00000000        0xc bn_translation_unit.o
 .group         0x00000000        0xc bn_translation_unit.o
 .group         0x00000000        0xc bn_translation_unit.o
 .group         0x00000000        0xc bn_translation_unit.o
 .group         0x00000000        0xc bn_translation_unit.o
 .group         0x00000000        0xc bn_translation_unit.o
 .text          0x00000000        0x0 bn_translation_unit.o
 .data          0x00000000        0x0 bn_translation_unit.o
 .bss           0x00000000        0x0 bn_translation_unit.o
 .text._ZN2bn2hw8palettes9grayscaleEPKNS_5colorEiiPS2_.part.0
                0x00000000       0x40 bn_translation_unit.o
 .text._ZN2bn13ostringstream11append_argsIiJA4_ciEEEvRKT_DpRKT0_.isra.0
                0x00000000       0x24 bn_translation_unit.o
 .text._ZN2bn12color_effect6invertENS_4spanINS_5colorEEE
                0x00000000       0x5c bn_translation_unit.o
 .text._ZN2bn8backdrop5colorEv
                0x00000000       0x14 bn_translation_unit.o
 .text._ZN2bn8backdrop9set_colorENS_5colorE
                0x00000000       0x20 bn_translation_unit.o
 .text._ZN2bn8backdrop9set_colorERKNS_8optionalINS_5colorEEE
                0x00000000       0x14 bn_translation_unit.o
 .text._ZN2bn8backdrop12remove_colorEv
                0x00000000       0x1c bn_translation_unit.o
 .text._ZN2bn8backdrop23blending_bottom_enabledEv
                0x00000000        0xc bn_translation_unit.o
 .text._ZN2bn8backdrop27set_blending_bottom_enabledEb
                0x00000000        0xc bn_translation_unit.o
 .text._ZN3_bn9sqrt_implEi
                0x00000000       0x18 bn_translation_unit.o
 .text._ZN3_bn4sram11unsafe_readEPvii
                0x00000000       0x18 bn_translation_unit.o
 .text._ZN3_bn4sram12unsafe_writeEPKvii
                0x00000000       0x18 bn_translation_unit.o
 .text._ZN3_bn6assert9show_argsIA16_ciEEvPKcS4_S4_iRKT_RKT0_
                0x00000000       0x54 bn_translation_unit.o
 .text._ZN3_bn6assert9show_argsIJA32_ciA4_ciEEEvPKcS5_S5_iDpRKT_
                0x00000000       0x58 bn_translation_unit.o
 .text._ZN3_bn6assert9show_argsIA12_ciEEvPKcS4_S4_iRKT_RKT0_
                0x00000000       0x54 bn_translation_unit.o
 .rodata._ZN2bn5atan2Eii.str1.4
                0x00000000       0x68 bn_translation_unit.o
 .text._ZN2bn5atan2Eii
                0x00000000       0x84 bn_translation_unit.o
 .text._ZN3_bn6assert9show_argsIJA35_ciA4_ciEEEvPKcS5_S5_iDpRKT_
                0x00000000       0x58 bn_translation_unit.o
 .rodata._ZN2bn12color_effect6invertERKNS_4spanIKNS_5colorEEENS1_IS2_EE.str1.4
                0x00000000       0x77 bn_translation_unit.o
 .text._ZN2bn12color_effect6invertERKNS_4spanIKNS_5colorEEENS1_IS2_EE
                0x00000000       0xa4 bn_translation_unit.o
 .text._ZN3_bn6assert9show_argsIA23_cEEvPKcS4_S4_iRKT_
                0x00000000       0x48 bn_translation_unit.o
 .text._ZN3_bn6assert9show_argsIA19_ciEEvPKcS4_S4_iRKT_RKT0_
                0x00000000       0x54 bn_translation_unit.o
 .text._ZN3_bn6assert9show_argsIA23_ciEEvPKcS4_S4_iRKT_RKT0_
                0x00000000       0x54 bn_translation_unit.o
 .text._ZN3_bn6assert9show_argsIA30_cEEvPKcS4_S4_iRKT_
                0x00000000       0x48 bn_translation_unit.o
 .text._ZN3_bn6assert9show_argsIA35_cEEvPKcS4_S4_iRKT_
                0x00000000       0x48 bn_translation_unit.o
 .text._ZN3_bn6assert9show_argsIA30_ciEEvPKcS4_S4_iRKT_RKT0_
                0x00000000       0x54 bn_translation_unit.o
 .text._ZN3_bn6assert9show_argsIA36_cEEvPKcS4_S4_iRKT_
                0x00000000       0x48 bn_translation_unit.o
 .text._ZN3_bn6assert9show_argsIA37_cEEvPKcS4_S4_iRKT_
                0x00000000       0x48 bn_translation_unit.o
 .text._ZN3_bn6assert9show_argsIJA37_ciA4_ciEEEvPKcS5_S5_iDpRKT_
                0x00000000       0x58 bn_translation_unit.o
 .text._ZN3_bn6assert9show_argsIJA23_ciA4_ciEEEvPKcS5_S5_iDpRKT_
                0x00000000       0x58 bn_translation_unit.o
 .rodata._ZN2bn12color_effect6rotateEiNS_4spanINS_5colorEEE.str1.4
                0x00000000       0x83 bn_translation_unit.o
 .text._ZN2bn12color_effect6rotateEiNS_4spanINS_5colorEEE
                0x00000000       0x9c bn_translation_unit.o
 .text._ZN2bn12color_effect6rotateERKNS_4spanIKNS_5colorEEEiNS1_IS2_EE
                0x00000000       0x8c bn_translation_unit.o
 .text._ZN3_bn6assert9show_argsIA18_cEEvPKcS4_S4_iRKT_
                0x00000000       0x48 bn_translation_unit.o
 .text._ZN3_bn6assert9show_argsIA13_cEEvPKcS4_S4_iRKT_
                0x00000000       0x48 bn_translation_unit.o
 .text._ZN3_bn6assert9show_argsIA26_ciEEvPKcS4_S4_iRKT_RKT0_
                0x00000000       0x54 bn_translation_unit.o
 .rodata._ZN2bn4sram10write_spanERKNS_4spanIKhEE.str1.4
                0x00000000       0x4e bn_translation_unit.o
 .text._ZN2bn4sram10write_spanERKNS_4spanIKhEE
                0x00000000       0x44 bn_translation_unit.o
 .text._ZN3_bn6assert9show_argsIA21_cEEvPKcS4_S4_iRKT_
                0x00000000       0x48 bn_translation_unit.o
 .text._ZN3_bn6assert9show_argsIA39_cEEvPKcS4_S4_iRKT_
                0x00000000       0x48 bn_translation_unit.o
 .rodata._ZN3_bn6formatERN2bn13ostringstreamEPKcS4_.str1.4
                0x00000000       0x7f bn_translation_unit.o
 .text._ZN3_bn6formatERN2bn13ostringstreamEPKcS4_
                0x00000000       0xc0 bn_translation_unit.o
 .text._ZN3_bn6assert9show_argsIA20_ciEEvPKcS4_S4_iRKT_RKT0_
                0x00000000       0x54 bn_translation_unit.o
 .rodata._ZN2bn4sram5clearEi.str1.4
                0x00000000       0x48 bn_translation_unit.o
 .text._ZN2bn4sram5clearEi
                0x00000000       0x64 bn_translation_unit.o
 .rodata._ZN2bn4sram9set_bytesEhi.str1.4
                0x00000000        0xa bn_translation_unit.o
 .text._ZN2bn4sram9set_bytesEhi
                0x00000000       0x64 bn_translation_unit.o
 .text._ZN3_bn6assert9show_argsIA31_ciEEvPKcS4_S4_iRKT_RKT0_
                0x00000000       0x54 bn_translation_unit.o
 .rodata._ZN2bn4sram9read_spanERNS_4spanIhEE.str1.4
                0x00000000       0x47 bn_translation_unit.o
 .text._ZN2bn4sram9read_spanERNS_4spanIhEE
                0x00000000       0x48 bn_translation_unit.o
 .text._ZN3_bn6assert9show_argsIA17_ciEEvPKcS4_S4_iRKT_RKT0_
                0x00000000       0x54 bn_translation_unit.o
 .rodata._ZN2bn4sram5clearEii.str1.4
                0x00000000       0x5c bn_translation_unit.o
 .text._ZN2bn4sram5clearEii
                0x00000000       0x9c bn_translation_unit.o
 .text._ZN2bn4sram9set_bytesEhii
                0x00000000       0x9c bn_translation_unit.o
 .text._ZN3_bn6assert9show_argsIJA43_ciA4_ciEEEvPKcS5_S5_iDpRKT_
                0x00000000       0x58 bn_translation_unit.o
 .rodata._ZN2bn4sram16read_span_offsetERNS_4spanIhEEi.str1.4
                0x00000000       0x63 bn_translation_unit.o
 .text._ZN2bn4sram16read_span_offsetERNS_4spanIhEEi
                0x00000000       0x78 bn_translation_unit.o
 .text._ZN3_bn6assert9show_argsIJA38_ciA4_ciEEEvPKcS5_S5_iDpRKT_
                0x00000000       0x58 bn_translation_unit.o
 .rodata._ZN2bn4sram17write_span_offsetERKNS_4spanIKhEEi.str1.4
                0x00000000       0x5a bn_translation_unit.o
 .text._ZN2bn4sram17write_span_offsetERKNS_4spanIKhEEi
                0x00000000       0x7c bn_translation_unit.o
 .text._ZN2bn13ostringstream6appendILi12EEEvNS_7fixed_tIXT_EEE
                0x00000000       0xa0 bn_translation_unit.o
 .text._ZN3_bn6assert9show_argsIA21_cN2bn7fixed_tILi12EEEEEvPKcS7_S7_iRKT_RKT0_
                0x00000000       0x54 bn_translation_unit.o
 .rodata._ZN2bn12color_effect10brightnessENS_7fixed_tILi12EEENS_4spanINS_5colorEEE.str1.4
                0x00000000       0x45 bn_translation_unit.o
 .text._ZN2bn12color_effect10brightnessENS_7fixed_tILi12EEENS_4spanINS_5colorEEE
                0x00000000       0x54 bn_translation_unit.o
 .text._ZN2bn12color_effect10brightnessERKNS_4spanIKNS_5colorEEENS_7fixed_tILi12EEENS1_IS2_EE
                0x00000000       0x84 bn_translation_unit.o
 .text._ZN3_bn6assert9show_argsIA19_cN2bn7fixed_tILi12EEEEEvPKcS7_S7_iRKT_RKT0_
                0x00000000       0x54 bn_translation_unit.o
 .rodata._ZN2bn12color_effect8contrastENS_7fixed_tILi12EEENS_4spanINS_5colorEEE.str1.4
                0x00000000       0x3f bn_translation_unit.o
 .text._ZN2bn12color_effect8contrastENS_7fixed_tILi12EEENS_4spanINS_5colorEEE
                0x00000000       0x54 bn_translation_unit.o
 .text._ZN2bn12color_effect8contrastERKNS_4spanIKNS_5colorEEENS_7fixed_tILi12EEENS1_IS2_EE
                0x00000000       0x84 bn_translation_unit.o
 .text._ZN3_bn6assert9show_argsIA20_cN2bn7fixed_tILi12EEEEEvPKcS7_S7_iRKT_RKT0_
                0x00000000       0x54 bn_translation_unit.o
 .rodata._ZN2bn12color_effect9intensityENS_7fixed_tILi12EEENS_4spanINS_5colorEEE.str1.4
                0x00000000       0x44 bn_translation_unit.o
 .text._ZN2bn12color_effect9intensityENS_7fixed_tILi12EEENS_4spanINS_5colorEEE
                0x00000000       0x54 bn_translation_unit.o
 .rodata._ZN2bn12color_effect9grayscaleENS_7fixed_tILi12EEENS_4spanINS_5colorEEE.str1.4
                0x00000000       0x4b bn_translation_unit.o
 .text._ZN2bn12color_effect9grayscaleENS_7fixed_tILi12EEENS_4spanINS_5colorEEE
                0x00000000       0xc0 bn_translation_unit.o
 .rodata._ZN2bn12color_effect9hue_shiftENS_7fixed_tILi12EEENS_4spanINS_5colorEEE.str1.4
                0x00000000        0xa bn_translation_unit.o
 .text._ZN2bn12color_effect9hue_shiftENS_7fixed_tILi12EEENS_4spanINS_5colorEEE
                0x00000000       0x54 bn_translation_unit.o
 .rodata._ZN2bn12color_effect4fadeENS_5colorENS_7fixed_tILi12EEENS_4spanIS1_EE.str1.4
                0x00000000        0x5 bn_translation_unit.o
 .text._ZN2bn12color_effect4fadeENS_5colorENS_7fixed_tILi12EEENS_4spanIS1_EE
                0x00000000       0xb0 bn_translation_unit.o
 .text._ZN2bn12color_effect9intensityERKNS_4spanIKNS_5colorEEENS_7fixed_tILi12EEENS1_IS2_EE
                0x00000000       0x84 bn_translation_unit.o
 .rodata._ZN2bn12color_effect9grayscaleERKNS_4spanIKNS_5colorEEENS_7fixed_tILi12EEENS1_IS2_EE.str1.4
                0x00000000       0x9e bn_translation_unit.o
 .text._ZN2bn12color_effect9grayscaleERKNS_4spanIKNS_5colorEEENS_7fixed_tILi12EEENS1_IS2_EE
                0x00000000      0x118 bn_translation_unit.o
 .text._ZN2bn12color_effect9hue_shiftERKNS_4spanIKNS_5colorEEENS_7fixed_tILi12EEENS1_IS2_EE
                0x00000000       0x84 bn_translation_unit.o
 .text._ZN2bn12color_effect4fadeERKNS_4spanIKNS_5colorEEES2_NS_7fixed_tILi12EEENS1_IS2_EE
                0x00000000      0x104 bn_translation_unit.o
 .text._ZN3_bn6assert9show_argsIA17_cN2bn7fixed_tILi12EEEEEvPKcS7_S7_iRKT_RKT0_
                0x00000000       0x54 bn_translation_unit.o
 .rodata._ZN2bn12color_effect5blendERKNS_4spanIKNS_5colorEEES6_NS_7fixed_tILi12EEENS1_IS2_EE.str1.4
                0x00000000      0x11d bn_translation_unit.o
 .text._ZN2bn12color_effect5blendERKNS_4spanIKNS_5colorEEES6_NS_7fixed_tILi12EEENS1_IS2_EE
                0x00000000      0x140 bn_translation_unit.o
 .rodata._ZN2bn7sin_lutE
                0x00000000        0x4 bn_translation_unit.o
 .rodata._ZN2bn12_GLOBAL__N_1L12sin_lut_implE
                0x00000000     0x1002 bn_translation_unit.o
 .rodata._ZN2bn17reciprocal_16_lutE
                0x00000000        0x4 bn_translation_unit.o
 .rodata._ZN2bn14reciprocal_lutE
                0x00000000        0x4 bn_translation_unit.o
 .rodata._ZN2bn12_GLOBAL__N_1L22reciprocal_16_lut_implE
                0x00000000      0x802 bn_translation_unit.o
 .rodata._ZN2bn12_GLOBAL__N_1L19reciprocal_lut_implE
                0x00000000     0x1004 bn_translation_unit.o
 .group         0x00000000        0xc bn_hw_audio.o
 .group         0x00000000        0xc bn_hw_audio.o
 .group         0x00000000        0xc bn_hw_audio.o
 .group         0x00000000        0xc bn_hw_audio.o
 .group         0x00000000        0xc bn_hw_audio.o
 .group         0x00000000        0xc bn_hw_audio.o
 .group         0x00000000        0xc bn_hw_audio.o
 .text          0x00000000        0x0 bn_hw_audio.o
 .data          0x00000000        0x0 bn_hw_audio.o
 .bss           0x00000000        0x0 bn_hw_audio.o
 .text._ZN2bn2hw5audio6enableEv
                0x00000000       0x2c bn_hw_audio.o
 .text._ZN2bn2hw5audio16update_on_vblankEv
                0x00000000        0xc bn_hw_audio.o
 .text._ZN2bn2hw5audio20set_update_on_vblankEb
                0x00000000        0xc bn_hw_audio.o
 .text._ZN3_bn6assert9show_argsIA14_ciEEvPKcS4_S4_iRKT_RKT0_
                0x00000000       0x54 bn_hw_audio.o
 .text._ZN3_bn6assert9show_argsIA46_cEEvPKcS4_S4_iRKT_
                0x00000000       0x48 bn_hw_audio.o
 .text._ZN3_bn6assert9show_argsIA14_cEEvPKcS4_S4_iRKT_
                0x00000000       0x48 bn_hw_audio.o
 .text._ZN3_bn6assert9show_argsIA13_cEEvPKcS4_S4_iRKT_
                0x00000000       0x48 bn_hw_audio.o
 .text._ZN3_bn6assert9show_argsIA33_cEEvPKcS4_S4_iRKT_
                0x00000000       0x48 bn_hw_audio.o
 .group         0x00000000        0xc bn_hw_common.bn_noflto.o
 .group         0x00000000        0xc bn_hw_common.bn_noflto.o
 .text          0x00000000        0x0 bn_hw_common.bn_noflto.o
 .data          0x00000000        0x0 bn_hw_common.bn_noflto.o
 .bss           0x00000000        0x0 bn_hw_common.bn_noflto.o
 .text.__assert_func
                0x00000000       0x10 bn_hw_common.bn_noflto.o
 .text._ZN3_bn6assert9show_argsIA27_cEEvPKcS4_S4_iRKT_
                0x00000000       0x48 bn_hw_common.bn_noflto.o
 .text.__cxa_pure_virtual
                0x00000000       0x24 bn_hw_common.bn_noflto.o
 .rodata.__aeabi_ldiv0.str1.4
                0x00000000       0x38 bn_hw_common.bn_noflto.o
 .text.__aeabi_ldiv0
                0x00000000       0x24 bn_hw_common.bn_noflto.o
 .bss.__dso_handle
                0x00000000        0x4 bn_hw_common.bn_noflto.o
 .group         0x00000000        0xc bn_hw_cstdlib.o
 .text          0x00000000        0x0 bn_hw_cstdlib.o
 .data          0x00000000        0x0 bn_hw_cstdlib.o
 .bss           0x00000000        0x0 bn_hw_cstdlib.o
 .text.malloc   0x00000000        0xc bn_hw_cstdlib.o
 .text.calloc   0x00000000        0xc bn_hw_cstdlib.o
 .text.realloc  0x00000000        0xc bn_hw_cstdlib.o
 .text.free     0x00000000        0xc bn_hw_cstdlib.o
 .text._ZN3_bn6assert9show_argsIA11_cEEvPKcS4_S4_iRKT_
                0x00000000       0x48 bn_hw_cstdlib.o
 .rodata.abort.str1.4
                0x00000000       0x2b bn_hw_cstdlib.o
 .text.unlikely.abort
                0x00000000       0x24 bn_hw_cstdlib.o
 .text          0x00000000        0x0 bn_hw_cstring.o
 .data          0x00000000        0x0 bn_hw_cstring.o
 .bss           0x00000000        0x0 bn_hw_cstring.o
 .text.memcmp   0x00000000       0x70 bn_hw_cstring.o
 .debug_info    0x00000000      0x5b5 bn_hw_cstring.o
 .debug_abbrev  0x00000000      0x185 bn_hw_cstring.o
 .debug_loc     0x00000000      0x2f4 bn_hw_cstring.o
 .debug_aranges
                0x00000000       0x20 bn_hw_cstring.o
 .debug_ranges  0x00000000       0x40 bn_hw_cstring.o
 .debug_line    0x00000000      0x30f bn_hw_cstring.o
 .debug_str     0x00000000      0x4d6 bn_hw_cstring.o
 .comment       0x00000000       0x24 bn_hw_cstring.o
 .debug_frame   0x00000000       0x2c bn_hw_cstring.o
 .text          0x00000000        0x0 bn_hw_game_pak.bn_ewram.o
 .data          0x00000000        0x0 bn_hw_game_pak.bn_ewram.o
 .bss           0x00000000        0x0 bn_hw_game_pak.bn_ewram.o
 .group         0x00000000        0xc bn_hw_link.o
 .group         0x00000000        0xc bn_hw_link.o
 .text          0x00000000        0x0 bn_hw_link.o
 .data          0x00000000        0x0 bn_hw_link.o
 .bss           0x00000000        0x0 bn_hw_link.o
 .text._ZN2bn2hw4link6enableEv
                0x00000000       0xa4 bn_hw_link.o
 .text._ZN2bn2hw4link10deactivateEv
                0x00000000       0x24 bn_hw_link.o
 .text._ZN3_bn6assert9show_argsIA15_cEEvPKcS4_S4_iRKT_
                0x00000000       0x48 bn_hw_link.o
 .text._ZN2bn2hw4link7receiveERNS_2lc12LinkResponseE
                0x00000000       0x88 bn_hw_link.o
 .text._ZN3_bn6assert9show_argsIA14_cEEvPKcS4_S4_iRKT_
                0x00000000       0x48 bn_hw_link.o
 .text._ZN2bn2hw4link4sendEi
                0x00000000       0xa0 bn_hw_link.o
 .text          0x00000000        0x0 bn_hw_memory.o
 .data          0x00000000        0x0 bn_hw_memory.o
 .bss           0x00000000        0x0 bn_hw_memory.o
 .text          0x00000000        0x0 bn_hw_palettes.bn_iwram.o
 .data          0x00000000        0x0 bn_hw_palettes.bn_iwram.o
 .bss           0x00000000        0x0 bn_hw_palettes.bn_iwram.o
 .text          0x00000000        0x0 bn_hw_palettes.o
 .data          0x00000000        0x0 bn_hw_palettes.o
 .bss           0x00000000        0x0 bn_hw_palettes.o
 .group         0x00000000        0xc bn_hw_show.o
 .group         0x00000000        0xc bn_hw_show.o
 .text          0x00000000        0x0 bn_hw_show.o
 .data          0x00000000        0x0 bn_hw_show.o
 .bss           0x00000000        0x0 bn_hw_show.o
 .text._ZN3_bn6assert9show_argsIA26_ciEEvPKcS4_S4_iRKT_RKT0_
                0x00000000       0x54 bn_hw_show.o
 .text._ZN3_bn6assert9show_argsIJA19_ciA4_ciEEEvPKcS5_S5_iDpRKT_
                0x00000000       0x64 bn_hw_show.o
 .text          0x00000000        0x0 bn_hw_sprite_tiles.bn_iwram.o
 .data          0x00000000        0x0 bn_hw_sprite_tiles.bn_iwram.o
 .bss           0x00000000        0x0 bn_hw_sprite_tiles.bn_iwram.o
 .text          0x00000000        0x0 bn_hw_sram.bn_ewram.o
 .data          0x00000000        0x0 bn_hw_sram.bn_ewram.o
 .bss           0x00000000        0x0 bn_hw_sram.bn_ewram.o
 .ewram         0x00000000       0x10 bn_hw_sram.bn_ewram.o
 .debug_info    0x00000000      0x521 bn_hw_sram.bn_ewram.o
 .debug_abbrev  0x00000000      0x178 bn_hw_sram.bn_ewram.o
 .debug_loc     0x00000000       0xe4 bn_hw_sram.bn_ewram.o
 .debug_aranges
                0x00000000       0x20 bn_hw_sram.bn_ewram.o
 .debug_ranges  0x00000000       0x10 bn_hw_sram.bn_ewram.o
 .debug_line    0x00000000      0x2b8 bn_hw_sram.bn_ewram.o
 .debug_str     0x00000000      0x506 bn_hw_sram.bn_ewram.o
 .comment       0x00000000       0x24 bn_hw_sram.bn_ewram.o
 .debug_frame   0x00000000       0x20 bn_hw_sram.bn_ewram.o
 .text          0x00000000        0x0 bn_hw_sram.o
 .data          0x00000000        0x0 bn_hw_sram.o
 .bss           0x00000000        0x0 bn_hw_sram.o
 .text          0x00000000        0x0 bn_hw_system_font.o
 .data          0x00000000        0x0 bn_hw_system_font.o
 .bss           0x00000000        0x0 bn_hw_system_font.o
 .text._ZN2bn11system_fontC2ERK5TFont
                0x00000000       0x14 bn_hw_system_font.o
 .text          0x00000000        0x0 bn_hw_text.o
 .data          0x00000000        0x0 bn_hw_text.o
 .bss           0x00000000        0x0 bn_hw_text.o
 .text._ZN2bn2hw4text5parseElRNS_5arrayIcLi32EEE
                0x00000000        0xc bn_hw_text.o
 .text._ZN2bn2hw4text5parseExRNS_5arrayIcLi32EEE
                0x00000000      0x138 bn_hw_text.o
 .text._ZN2bn2hw4text5parseEmRNS_5arrayIcLi32EEE
                0x00000000        0xc bn_hw_text.o
 .text._ZN2bn2hw4text5parseEyRNS_5arrayIcLi32EEE
                0x00000000       0xe4 bn_hw_text.o
 .text          0x00000000        0x0 vgm.o
 .data          0x00000000        0x0 vgm.o
 .bss           0x00000000        0x0 vgm.o
 .text._Z7VgmInitv
                0x00000000       0x18 vgm.o
 .text          0x00000000        0x0 tonc_color.o
 .data          0x00000000        0x0 tonc_color.o
 .bss           0x00000000        0x0 tonc_color.o
 .text.clr_blend
                0x00000000       0x98 tonc_color.o
 .text.clr_fade
                0x00000000       0x8c tonc_color.o
 .text.pal_gradient
                0x00000000       0xf0 tonc_color.o
 .text.pal_gradient_ex
                0x00000000       0x18 tonc_color.o
 .text.clr_adj_brightness
                0x00000000       0x60 tonc_color.o
 .text.clr_adj_contrast
                0x00000000       0x80 tonc_color.o
 .text.clr_adj_intensity
                0x00000000       0x7c tonc_color.o
 .text          0x00000000        0x0 tonc_sbmp16.o
 .data          0x00000000        0x0 tonc_sbmp16.o
 .bss           0x00000000        0x0 tonc_sbmp16.o
 .text.sbmp16_get_pixel
                0x00000000       0x10 tonc_sbmp16.o
 .text.sbmp16_plot
                0x00000000       0x14 tonc_sbmp16.o
 .text.sbmp16_hline
                0x00000000       0x30 tonc_sbmp16.o
 .text.sbmp16_vline
                0x00000000       0x40 tonc_sbmp16.o
 .text.sbmp16_line
                0x00000000       0xe8 tonc_sbmp16.o
 .text.sbmp16_frame
                0x00000000       0x90 tonc_sbmp16.o
 .text.sbmp16_floodfill_internal
                0x00000000      0x11c tonc_sbmp16.o
 .text.sbmp16_floodfill
                0x00000000       0x28 tonc_sbmp16.o
 .text          0x00000000        0x0 tonc_schr4c.o
 .data          0x00000000        0x0 tonc_schr4c.o
 .bss           0x00000000        0x0 tonc_schr4c.o
 .text.schr4c_prep_map
                0x00000000       0x54 tonc_schr4c.o
 .text.schr4c_get_ptr
                0x00000000       0x10 tonc_schr4c.o
 .text.schr4c_get_pixel
                0x00000000       0x24 tonc_schr4c.o
 .text.schr4c_plot
                0x00000000       0x30 tonc_schr4c.o
 .text.schr4c_hline
                0x00000000       0xe8 tonc_schr4c.o
 .text.schr4c_vline
                0x00000000       0x48 tonc_schr4c.o
 .text.schr4c_line
                0x00000000      0x17c tonc_schr4c.o
 .text.schr4c_rect
                0x00000000      0x13c tonc_schr4c.o
 .text.schr4c_frame
                0x00000000       0xa0 tonc_schr4c.o
 .text.schr4c_floodfill_internal
                0x00000000      0x160 tonc_schr4c.o
 .text.schr4c_floodfill
                0x00000000       0x30 tonc_schr4c.o
 .debug_info    0x00000000     0x1488 tonc_schr4c.o
 .debug_abbrev  0x00000000      0x3c5 tonc_schr4c.o
 .debug_loc     0x00000000     0x2059 tonc_schr4c.o
 .debug_aranges
                0x00000000       0x70 tonc_schr4c.o
 .debug_ranges  0x00000000      0x320 tonc_schr4c.o
 .debug_line    0x00000000      0xc61 tonc_schr4c.o
 .debug_str     0x00000000      0x302 tonc_schr4c.o
 .comment       0x00000000       0x24 tonc_schr4c.o
 .debug_frame   0x00000000      0x17c tonc_schr4c.o
 .text          0x00000000        0x0 tonc_schr4r.o
 .data          0x00000000        0x0 tonc_schr4r.o
 .bss           0x00000000        0x0 tonc_schr4r.o
 .text.schr4r_prep_map
                0x00000000       0x50 tonc_schr4r.o
 .text.schr4r_get_ptr
                0x00000000       0x24 tonc_schr4r.o
 .text.schr4r_get_pixel
                0x00000000       0x2c tonc_schr4r.o
 .text.schr4r_plot
                0x00000000       0x38 tonc_schr4r.o
 .text.schr4r_hline
                0x00000000       0xac tonc_schr4r.o
 .text.schr4r_vline
                0x00000000       0x68 tonc_schr4r.o
 .text.schr4r_line
                0x00000000      0x178 tonc_schr4r.o
 .text.schr4r_rect
                0x00000000      0x2ec tonc_schr4r.o
 .text.schr4r_frame
                0x00000000       0xa0 tonc_schr4r.o
 .debug_info    0x00000000      0xf39 tonc_schr4r.o
 .debug_abbrev  0x00000000      0x32b tonc_schr4r.o
 .debug_loc     0x00000000     0x1bca tonc_schr4r.o
 .debug_aranges
                0x00000000       0x60 tonc_schr4r.o
 .debug_ranges  0x00000000      0x210 tonc_schr4r.o
 .debug_line    0x00000000      0xbba tonc_schr4r.o
 .debug_str     0x00000000      0x2b3 tonc_schr4r.o
 .comment       0x00000000       0x24 tonc_schr4r.o
 .debug_frame   0x00000000      0x140 tonc_schr4r.o
 .text          0x00000000        0x0 tonc_surface.o
 .data          0x00000000        0x0 tonc_surface.o
 .bss           0x00000000        0x0 tonc_surface.o
 .text.srf_init
                0x00000000       0xc0 tonc_surface.o
 .rodata.srf_init
                0x00000000       0x1c tonc_surface.o
 .text.srf_get_ptr
                0x00000000       0x60 tonc_surface.o
 .debug_info    0x00000000      0x439 tonc_surface.o
 .debug_abbrev  0x00000000      0x1eb tonc_surface.o
 .debug_loc     0x00000000      0x592 tonc_surface.o
 .debug_aranges
                0x00000000       0x28 tonc_surface.o
 .debug_ranges  0x00000000       0xb8 tonc_surface.o
 .debug_line    0x00000000      0x3ba tonc_surface.o
 .debug_str     0x00000000      0x257 tonc_surface.o
 .comment       0x00000000       0x24 tonc_surface.o
 .debug_frame   0x00000000       0x50 tonc_surface.o
 .text          0x00000000        0x0 bmp16_drawg_b1cs.o
 .data          0x00000000        0x0 bmp16_drawg_b1cs.o
 .bss           0x00000000        0x0 bmp16_drawg_b1cs.o
 .text.bmp16_drawg_b1cos
                0x00000000       0xcc bmp16_drawg_b1cs.o
 .text          0x00000000        0x0 tte_init_bmp.o
 .data          0x00000000        0x0 tte_init_bmp.o
 .bss           0x00000000        0x0 tte_init_bmp.o
 .text          0x00000000        0x0 tte_main.o
 .data          0x00000000        0x0 tte_main.o
 .bss           0x00000000        0x0 tte_main.o
 .text.tte_set_context
                0x00000000        0x4 tte_main.o
 .text.tte_set_color_attr
                0x00000000       0x10 tte_main.o
 .text.tte_set_color_attrs
                0x00000000       0x18 tte_main.o
 .text.tte_set_color
                0x00000000       0x1c tte_main.o
 .text.tte_set_colors
                0x00000000       0x38 tte_main.o
 .text.tte_putc
                0x00000000       0x54 tte_main.o
 .text.tte_write_ex
                0x00000000       0x2c tte_main.o
 .text.tte_erase_rect
                0x00000000       0x1c tte_main.o
 .text.tte_erase_screen
                0x00000000       0x24 tte_main.o
 .text.tte_erase_line
                0x00000000       0x2c tte_main.o
 .text          0x00000000        0x0 interrupts_gba.o
 .data          0x00000000        0x0 interrupts_gba.o
 .bss           0x00000000        0x0 interrupts_gba.o
 .text          0x00000000        0x0 coroutine.o
 .data          0x00000000        0x0 coroutine.o
 .bss           0x00000000        0x0 coroutine.o
 .text.__agbabi_coro_make
                0x00000000       0x28 coroutine.o
 .debug_info    0x00000000      0x12b coroutine.o
 .debug_abbrev  0x00000000       0xf0 coroutine.o
 .debug_loc     0x00000000       0x9e coroutine.o
 .debug_aranges
                0x00000000       0x20 coroutine.o
 .debug_ranges  0x00000000       0x10 coroutine.o
 .debug_line    0x00000000       0xfd coroutine.o
 .debug_str     0x00000000      0x19d coroutine.o
 .comment       0x00000000       0x24 coroutine.o
 .debug_frame   0x00000000       0x28 coroutine.o
 .text          0x00000000        0x0 rtc.o
 .data          0x00000000        0x0 rtc.o
 .bss           0x00000000        0x0 rtc.o
 .text.rtc_get_status
                0x00000000       0x74 rtc.o
 .text.rtc_set_status_24hr
                0x00000000       0x7c rtc.o
 .text.__agbabi_rtc_time
                0x00000000       0xa4 rtc.o
 .text.__agbabi_rtc_settime
                0x00000000       0xb4 rtc.o
 .text.__agbabi_rtc_datetime
                0x00000000       0xd8 rtc.o
 .text.__agbabi_rtc_init
                0x00000000       0xc0 rtc.o
 .text.__agbabi_rtc_setdatetime
                0x00000000       0xf8 rtc.o
 .debug_info    0x00000000      0xbdb rtc.o
 .debug_abbrev  0x00000000      0x2e3 rtc.o
 .debug_loc     0x00000000      0xc87 rtc.o
 .debug_aranges
                0x00000000       0x50 rtc.o
 .debug_ranges  0x00000000      0x240 rtc.o
 .debug_line    0x00000000      0xb3e rtc.o
 .debug_str     0x00000000      0x2b1 rtc.o
 .comment       0x00000000       0x24 rtc.o
 .debug_frame   0x00000000       0xf8 rtc.o
 .text          0x00000000        0x0 gbt_player.o
 .data          0x00000000        0x0 gbt_player.o
 .bss           0x00000000        0x0 gbt_player.o
 .text.gbt_set_event_callback_handler
                0x00000000        0xc gbt_player.o
 .text.gbt_enable_channels
                0x00000000       0x10 gbt_player.o
 .text.gbt_get_position
                0x00000000       0x4c gbt_player.o
 .text          0x00000000        0x0 bn_hw_bg_blocks.o
 .data          0x00000000        0x0 bn_hw_bg_blocks.o
 .bss           0x00000000        0x0 bn_hw_bg_blocks.o
 .text          0x00000000       0x1c bn_hw_core.o
 .data          0x00000000        0x0 bn_hw_core.o
 .bss           0x00000000        0x0 bn_hw_core.o
 .debug_line    0x00000000       0x6c bn_hw_core.o
 .debug_info    0x00000000       0x23 bn_hw_core.o
 .debug_abbrev  0x00000000       0x14 bn_hw_core.o
 .debug_aranges
                0x00000000       0x20 bn_hw_core.o
 .debug_str     0x00000000       0x60 bn_hw_core.o
 .text          0x00000000        0x0 bn_hw_hblank_effects.o
 .data          0x00000000        0x0 bn_hw_hblank_effects.o
 .bss           0x00000000        0x0 bn_hw_hblank_effects.o
 .text          0x00000000        0x0 bn_hw_palettes_asm.o
 .data          0x00000000        0x0 bn_hw_palettes_asm.o
 .bss           0x00000000        0x0 bn_hw_palettes_asm.o
 .text          0x00000000        0x0 clr_blend_fast.o
 .data          0x00000000        0x0 clr_blend_fast.o
 .bss           0x00000000        0x0 clr_blend_fast.o
 .text          0x00000000        0x0 clr_fade_fast.o
 .data          0x00000000        0x0 clr_fade_fast.o
 .bss           0x00000000        0x0 clr_fade_fast.o
 .text          0x00000000        0x0 tonc_bios.o
 .data          0x00000000        0x0 tonc_bios.o
 .bss           0x00000000        0x0 tonc_bios.o
 .text.SoftReset
                0x00000000        0x4 tonc_bios.o
 .text.RegisterRamReset
                0x00000000        0x4 tonc_bios.o
 .text.Halt     0x00000000        0x4 tonc_bios.o
 .text.Stop     0x00000000        0x4 tonc_bios.o
 .text.IntrWait
                0x00000000        0x4 tonc_bios.o
 .text.Div      0x00000000        0x4 tonc_bios.o
 .text.DivArm   0x00000000        0x4 tonc_bios.o
 .text.Sqrt     0x00000000        0x4 tonc_bios.o
 .text.ArcTan   0x00000000        0x4 tonc_bios.o
 .text.ArcTan2  0x00000000        0x4 tonc_bios.o
 .text.CpuSet   0x00000000        0x4 tonc_bios.o
 .text.CpuFastSet
                0x00000000        0x4 tonc_bios.o
 .text.BiosCheckSum
                0x00000000        0x4 tonc_bios.o
 .text.BgAffineSet
                0x00000000        0x4 tonc_bios.o
 .text.ObjAffineSet
                0x00000000        0x4 tonc_bios.o
 .text.BitUnPack
                0x00000000        0x4 tonc_bios.o
 .text.LZ77UnCompWram
                0x00000000        0x4 tonc_bios.o
 .text.LZ77UnCompVram
                0x00000000        0x4 tonc_bios.o
 .text.HuffUnComp
                0x00000000        0x4 tonc_bios.o
 .text.RLUnCompWram
                0x00000000        0x4 tonc_bios.o
 .text.RLUnCompVram
                0x00000000        0x4 tonc_bios.o
 .text.Diff8bitUnFilterWram
                0x00000000        0x4 tonc_bios.o
 .text.Diff8bitUnFilterVram
                0x00000000        0x4 tonc_bios.o
 .text.Diff16bitUnFilter
                0x00000000        0x4 tonc_bios.o
 .text.SoundBias
                0x00000000        0x4 tonc_bios.o
 .text.SoundDriverInit
                0x00000000        0x4 tonc_bios.o
 .text.SoundDriverMode
                0x00000000        0x4 tonc_bios.o
 .text.SoundDriverMain
                0x00000000        0x4 tonc_bios.o
 .text.SoundDriverVSync
                0x00000000        0x4 tonc_bios.o
 .text.SoundChannelClear
                0x00000000        0x4 tonc_bios.o
 .text.MidiKey2Freq
                0x00000000        0x4 tonc_bios.o
 .text.MultiBoot
                0x00000000        0x4 tonc_bios.o
 .text.SoundDriverVSyncOff
                0x00000000        0x4 tonc_bios.o
 .text.SoundDriverVSyncOn
                0x00000000        0x4 tonc_bios.o
 .text          0x00000000        0x0 tonc_memset.o
 .data          0x00000000        0x0 tonc_memset.o
 .bss           0x00000000        0x0 tonc_memset.o
 .text          0x00000000        0x0 tonc_nocash.o
 .data          0x00000000        0x0 tonc_nocash.o
 .bss           0x00000000        0x0 tonc_nocash.o
 .text.nocash_puts
                0x00000000       0x38 tonc_nocash.o
 .ewram.nocash_message
                0x00000000       0x5c tonc_nocash.o
 .debug_line    0x00000000       0x9f tonc_nocash.o
 .debug_info    0x00000000       0x3a tonc_nocash.o
 .debug_abbrev  0x00000000       0x26 tonc_nocash.o
 .debug_aranges
                0x00000000       0x28 tonc_nocash.o
 .debug_str     0x00000000       0x8e tonc_nocash.o
 .debug_ranges  0x00000000       0x20 tonc_nocash.o
 .text          0x00000000        0x0 verdana9.o
 .data          0x00000000        0x0 verdana9.o
 .bss           0x00000000        0x0 verdana9.o
 .text          0x00000000        0x0 irq_handler.o
 .data          0x00000000        0x0 irq_handler.o
 .bss           0x00000000        0x0 irq_handler.o
 .data          0x00000000        0x0 posprintf.o
 .bss           0x00000000        0x0 posprintf.o
 .text          0x00000000        0x0 atan2.o
 .data          0x00000000        0x0 atan2.o
 .bss           0x00000000        0x0 atan2.o
 .iwram.__agbabi_atan2
                0x00000000       0xd4 atan2.o
 .debug_line    0x00000000       0x9f atan2.o
 .debug_info    0x00000000       0x24 atan2.o
 .debug_abbrev  0x00000000       0x14 atan2.o
 .debug_aranges
                0x00000000       0x20 atan2.o
 .debug_str     0x00000000       0x6c atan2.o
 .text          0x00000000        0x0 coroutine_asm.o
 .data          0x00000000        0x0 coroutine_asm.o
 .bss           0x00000000        0x0 coroutine_asm.o
 .iwram.__agbabi_coro_resume
                0x00000000       0x20 coroutine_asm.o
 .iwram.__agbabi_coro_yield
                0x00000000       0x1c coroutine_asm.o
 .iwram.__agbabi_coro_pop
                0x00000000       0x34 coroutine_asm.o
 .debug_line    0x00000000       0xac coroutine_asm.o
 .debug_info    0x00000000       0x22 coroutine_asm.o
 .debug_abbrev  0x00000000       0x12 coroutine_asm.o
 .debug_aranges
                0x00000000       0x30 coroutine_asm.o
 .debug_str     0x00000000       0x74 coroutine_asm.o
 .debug_ranges  0x00000000       0x28 coroutine_asm.o
 .text          0x00000000        0x0 fiq_memcpy.o
 .data          0x00000000        0x0 fiq_memcpy.o
 .bss           0x00000000        0x0 fiq_memcpy.o
 .iwram.__agbabi_fiq_memcpy4
                0x00000000       0x70 fiq_memcpy.o
 .iwram.__agbabi_fiq_memcpy4x4
                0x00000000       0x54 fiq_memcpy.o
 .debug_line    0x00000000       0xaf fiq_memcpy.o
 .debug_info    0x00000000       0x22 fiq_memcpy.o
 .debug_abbrev  0x00000000       0x12 fiq_memcpy.o
 .debug_aranges
                0x00000000       0x28 fiq_memcpy.o
 .debug_str     0x00000000       0x71 fiq_memcpy.o
 .debug_ranges  0x00000000       0x20 fiq_memcpy.o
 .text          0x00000000        0x0 lmul.o
 .data          0x00000000        0x0 lmul.o
 .bss           0x00000000        0x0 lmul.o
 .iwram.__aeabi_llsl
                0x00000000       0x1c lmul.o
 .iwram.__aeabi_llsr
                0x00000000       0x1c lmul.o
 .iwram.__aeabi_lasr
                0x00000000       0x1c lmul.o
 .text          0x00000000        0x0 memcpy.o
 .data          0x00000000        0x0 memcpy.o
 .bss           0x00000000        0x0 memcpy.o
 .text          0x00000000        0x0 memmove.o
 .data          0x00000000        0x0 memmove.o
 .bss           0x00000000        0x0 memmove.o
 .iwram.__aeabi_memmove8
                0x00000000        0xc memmove.o
 .iwram.__agbabi_memmove1
                0x00000000        0xc memmove.o
 .text          0x00000000        0x0 memset.o
 .data          0x00000000        0x0 memset.o
 .bss           0x00000000        0x0 memset.o
 .iwram.__aeabi_memclr
                0x00000000       0x10 memset.o
 .text          0x00000000        0x0 rmemcpy.o
 .data          0x00000000        0x0 rmemcpy.o
 .bss           0x00000000        0x0 rmemcpy.o
 .text          0x00000000        0x0 clz.o
 .data          0x00000000        0x0 clz.o
 .bss           0x00000000        0x0 clz.o
 .iwram         0x00000000      0x148 clz.o
 .debug_line    0x00000000       0x81 clz.o
 .debug_info    0x00000000       0x24 clz.o
 .debug_abbrev  0x00000000       0x14 clz.o
 .debug_aranges
                0x00000000       0x20 clz.o
 .debug_str     0x00000000       0x6e clz.o
 .text          0x00000000        0x0 sdiv32.o
 .data          0x00000000        0x0 sdiv32.o
 .bss           0x00000000        0x0 sdiv32.o
 .text          0x00000000        0x0 sqrt32.o
 .data          0x00000000        0x0 sqrt32.o
 .bss           0x00000000        0x0 sqrt32.o
 .iwram         0x00000000       0xec sqrt32.o
 .debug_line    0x00000000       0xaa sqrt32.o
 .debug_info    0x00000000       0x24 sqrt32.o
 .debug_abbrev  0x00000000       0x14 sqrt32.o
 .debug_aranges
                0x00000000       0x20 sqrt32.o
 .debug_str     0x00000000       0x71 sqrt32.o
 .text          0x00000000        0x0 udiv32.o
 .data          0x00000000        0x0 udiv32.o
 .bss           0x00000000        0x0 udiv32.o
 .text          0x00000000        0x0 huffman.o
 .data          0x00000000        0x0 huffman.o
 .bss           0x00000000        0x0 huffman.o
 .text          0x00000000        0x0 lz77.o
 .data          0x00000000        0x0 lz77.o
 .bss           0x00000000        0x0 lz77.o
 .text          0x00000000        0x0 running_length.o
 .data          0x00000000        0x0 running_length.o
 .bss           0x00000000        0x0 running_length.o
 .data          0x00000000        0x0 mm_effect.o
 .data          0x00000000        0x0 mm_main.o
 .data          0x00000000        0x0 mm_mas.o
 .text          0x00000000        0x0 mm_mas_arm.o
 .data          0x00000000        0x0 mm_mas_arm.o
 .bss           0x00000000        0x0 mm_mas_arm.o
 .text          0x00000000       0x44 mm_init_default.o
 .data          0x00000000        0x0 mm_init_default.o
 .bss           0x00000000      0x420 mm_init_default.o
 .debug_line    0x00000000       0x9e mm_init_default.o
 .debug_info    0x00000000       0x23 mm_init_default.o
 .debug_abbrev  0x00000000       0x14 mm_init_default.o
 .debug_aranges
                0x00000000       0x20 mm_init_default.o
 .debug_str     0x00000000       0x7d mm_init_default.o
 .data          0x00000000        0x0 mm_main_gba.o
 .data          0x00000000        0x0 mm_mixer_gba.o
 .data          0x00000000        0x0 G:/devkitPro/devkitARM/bin/../lib/gcc/arm-none-eabi/14.1.0/thumb\libgcc.a(_call_via_rX.o)
 .bss           0x00000000        0x0 G:/devkitPro/devkitARM/bin/../lib/gcc/arm-none-eabi/14.1.0/thumb\libgcc.a(_call_via_rX.o)
 .text          0x00000000       0xd4 G:/devkitPro/devkitARM/bin/../lib/gcc/arm-none-eabi/14.1.0/thumb\libgcc.a(_aeabi_ldivmod.o)
 .data          0x00000000        0x0 G:/devkitPro/devkitARM/bin/../lib/gcc/arm-none-eabi/14.1.0/thumb\libgcc.a(_aeabi_ldivmod.o)
 .bss           0x00000000        0x0 G:/devkitPro/devkitARM/bin/../lib/gcc/arm-none-eabi/14.1.0/thumb\libgcc.a(_aeabi_ldivmod.o)
 .text          0x00000000       0x3c G:/devkitPro/devkitARM/bin/../lib/gcc/arm-none-eabi/14.1.0/thumb\libgcc.a(_aeabi_uldivmod.o)
 .data          0x00000000        0x0 G:/devkitPro/devkitARM/bin/../lib/gcc/arm-none-eabi/14.1.0/thumb\libgcc.a(_aeabi_uldivmod.o)
 .bss           0x00000000        0x0 G:/devkitPro/devkitARM/bin/../lib/gcc/arm-none-eabi/14.1.0/thumb\libgcc.a(_aeabi_uldivmod.o)
 .text          0x00000000        0x4 G:/devkitPro/devkitARM/bin/../lib/gcc/arm-none-eabi/14.1.0/thumb\libgcc.a(_sync_none.o)
 .data          0x00000000        0x0 G:/devkitPro/devkitARM/bin/../lib/gcc/arm-none-eabi/14.1.0/thumb\libgcc.a(_sync_none.o)
 .bss           0x00000000        0x0 G:/devkitPro/devkitARM/bin/../lib/gcc/arm-none-eabi/14.1.0/thumb\libgcc.a(_sync_none.o)
 .text          0x00000000        0x0 G:/devkitPro/devkitARM/bin/../lib/gcc/arm-none-eabi/14.1.0/thumb\libgcc.a(_udivmoddi4.o)
 .data          0x00000000        0x0 G:/devkitPro/devkitARM/bin/../lib/gcc/arm-none-eabi/14.1.0/thumb\libgcc.a(_udivmoddi4.o)
 .bss           0x00000000        0x0 G:/devkitPro/devkitARM/bin/../lib/gcc/arm-none-eabi/14.1.0/thumb\libgcc.a(_udivmoddi4.o)
 .text.__udivmoddi4
                0x00000000      0x19c G:/devkitPro/devkitARM/bin/../lib/gcc/arm-none-eabi/14.1.0/thumb\libgcc.a(_udivmoddi4.o)
 .comment       0x00000000       0x24 G:/devkitPro/devkitARM/bin/../lib/gcc/arm-none-eabi/14.1.0/thumb\libgcc.a(_udivmoddi4.o)
 .text          0x00000000        0x0 G:/devkitPro/devkitARM/bin/../lib/gcc/arm-none-eabi/14.1.0/thumb/crtend.o
 .data          0x00000000        0x0 G:/devkitPro/devkitARM/bin/../lib/gcc/arm-none-eabi/14.1.0/thumb/crtend.o
 .bss           0x00000000        0x0 G:/devkitPro/devkitARM/bin/../lib/gcc/arm-none-eabi/14.1.0/thumb/crtend.o
 .rodata.all_implied_fbits
                0x00000000       0x24 G:/devkitPro/devkitARM/bin/../lib/gcc/arm-none-eabi/14.1.0/thumb/crtend.o
 .text          0x00000000        0x0 G:/devkitPro/devkitARM/bin/../lib/gcc/arm-none-eabi/14.1.0/thumb/crtn.o
 .data          0x00000000        0x0 G:/devkitPro/devkitARM/bin/../lib/gcc/arm-none-eabi/14.1.0/thumb/crtn.o
 .bss           0x00000000        0x0 G:/devkitPro/devkitARM/bin/../lib/gcc/arm-none-eabi/14.1.0/thumb/crtn.o

Memory Configuration

Name             Origin             Length             Attributes
rom              0x08000000         0x02000000
iwram            0x03000000         0x00008000
ewram            0x02000000         0x00040000
*default*        0x00000000         0xffffffff

Linker script and memory map

                0x00000000                        __sync_synchronize = __sync_synchronize_none
                0x08000000                        __text_start = ORIGIN (rom)
                0x02040000                        __eheap_end = (ORIGIN (ewram) + LENGTH (ewram))
                0x03000000                        __iwram_start = ORIGIN (iwram)
                0x03008000                        __iwram_top = (ORIGIN (iwram) + LENGTH (iwram))
                0x03007fa0                        __sp_irq = (__iwram_top - 0x60)
                0x03007f00                        __sp_usr = (__sp_irq - 0xa0)
                0x03007ff8                        __irq_flags = 0x3007ff8
                0x08000000                        . = __text_start

.crt0           0x08000000      0x210
 *(.crt0)
 .crt0          0x08000000      0x210 G:/devkitPro/devkitARM/bin/../lib/gcc/arm-none-eabi/14.1.0/../../../../arm-none-eabi/lib/thumb/gba_crt0.o
                0x08000000                _start
                0x080000c4                __boot_method
                0x080000c5                __slave_number
                0x080000e0                start_vector
                0x08000210                        . = ALIGN (0x4)

.init           0x08000210        0xc
 *(SORT_NONE(.init))
 .init          0x08000210        0x4 G:/devkitPro/devkitARM/bin/../lib/gcc/arm-none-eabi/14.1.0/thumb/crti.o
                0x08000210                _init
 .init          0x08000214        0x8 G:/devkitPro/devkitARM/bin/../lib/gcc/arm-none-eabi/14.1.0/thumb/crtn.o

.plt            0x0800021c        0x0
 *(.plt)
                0x0800021c                        . = ALIGN (0x4)

.text           0x08000220    0x16f98
 *(EXCLUDE_FILE(*.iwram*) .text*)
 .text.__do_global_dtors_aux
                0x08000220       0x2c G:/devkitPro/devkitARM/bin/../lib/gcc/arm-none-eabi/14.1.0/thumb/crtbegin.o
 .text.frame_dummy
                0x0800024c       0x24 G:/devkitPro/devkitARM/bin/../lib/gcc/arm-none-eabi/14.1.0/thumb/crtbegin.o
 .text._ZN6common4infoC2ERKN2bn11string_viewERKNS1_4spanIS3_EERNS1_21sprite_text_generatorE
                0x08000270       0xd8 common_info.o
                0x08000270                common::info::info(bn::string_view const&, bn::span<bn::string_view const> const&, bn::sprite_text_generator&)
                0x08000270                common::info::info(bn::string_view const&, bn::span<bn::string_view const> const&, bn::sprite_text_generator&)
 .text._ZN6common4infoC2ERKN2bn4spanIKNS1_11string_viewEEERNS1_21sprite_text_generatorE
                0x08000348       0x1c common_info.o
                0x08000348                common::info::info(bn::span<bn::string_view const> const&, bn::sprite_text_generator&)
                0x08000348                common::info::info(bn::span<bn::string_view const> const&, bn::sprite_text_generator&)
 .text._ZN3_bn6assert9show_argsIA15_ciEEvPKcS4_S4_iRKT_RKT0_
                0x08000364       0x54 common_stats.o
                0x08000364                void _bn::assert::show_args<char [15], int>(char const*, char const*, char const*, int, char const (&) [15], int const&)
 .text._ZN2bn13ostringstream6appendILi12EEEvNS_7fixed_tIXT_EEE
                0x080003b8       0xa0 common_stats.o
                0x080003b8                void bn::ostringstream::append<12>(bn::fixed_t<12>)
 .text._ZN12_GLOBAL__N_115full_text_sceneERN2bn14regular_bg_ptrES2_RNS0_11rect_windowES4_
                0x08000458       0xb0 main.o
 .text.startup.main
                0x08000508      0x3d4 main.o
                0x08000508                main
 .text._ZN2bn13ostringstream11append_argsIiJA4_ciEEEvRKT_DpRKT0_.isra.0
                0x080008dc       0x24 bn_affine_bg_animate_actions.o
 .text._ZN3_bn6assert9show_argsIA15_cEEvPKcS4_S4_iRKT_
                0x08000900       0x48 bn_affine_bg_animate_actions.o
                0x08000900                void _bn::assert::show_args<char [15]>(char const*, char const*, char const*, int, char const (&) [15])
 .text._ZN3_bn6assert9show_argsIA24_ciEEvPKcS4_S4_iRKT_RKT0_
                0x08000948       0x54 bn_affine_bg_animate_actions.o
                0x08000948                void _bn::assert::show_args<char [24], int>(char const*, char const*, char const*, int, char const (&) [24], int const&)
 .text._ZN3_bn6assert9show_argsIA28_ciEEvPKcS4_S4_iRKT_RKT0_
                0x0800099c       0x54 bn_affine_bg_animate_actions.o
                0x0800099c                void _bn::assert::show_args<char [28], int>(char const*, char const*, char const*, int, char const (&) [28], int const&)
 .text._ZN3_bn6assert9show_argsIJA19_ciA4_ciEEEvPKcS5_S5_iDpRKT_
                0x080009f0       0x58 bn_affine_bg_animate_actions.o
                0x080009f0                void _bn::assert::show_args<char [19], int, char [4], int>(char const*, char const*, char const*, int, char const (&) [19], int const&, char const (&) [4], int const&)
 .text._ZN2bn13audio_manager12_GLOBAL__N_111static_dataD2Ev
                0x08000a48        0x4 bn_audio_manager.o
 .text._ZN2bn13audio_manager4initEv
                0x08000a4c       0x48 bn_audio_manager.o
                0x08000a4c                bn::audio_manager::init()
 .text._ZN2bn13audio_manager7disableEv
                0x08000a94        0xc bn_audio_manager.o
                0x08000a94                bn::audio_manager::disable()
 .text._ZN2bn13audio_manager10sound_dataEt
                0x08000aa0       0x64 bn_audio_manager.o
                0x08000aa0                bn::audio_manager::sound_data(unsigned short)
 .text._ZN2bn13audio_manager6updateEv
                0x08000b04        0xc bn_audio_manager.o
                0x08000b04                bn::audio_manager::update()
 .text._ZN2bn13audio_manager6commitEv
                0x08000b10        0xc bn_audio_manager.o
                0x08000b10                bn::audio_manager::commit()
 .text._ZN2bn13audio_manager4stopEv
                0x08000b1c       0x6c bn_audio_manager.o
                0x08000b1c                bn::audio_manager::stop()
 .text._ZN3_bn6assert9show_argsIA18_ciEEvPKcS4_S4_iRKT_RKT0_
                0x08000b88       0x54 bn_audio_manager.o
                0x08000b88                void _bn::assert::show_args<char [18], int>(char const*, char const*, char const*, int, char const (&) [18], int const&)
 .text._ZN3_bn6assert9show_argsIA14_ciEEvPKcS4_S4_iRKT_RKT0_
                0x08000bdc       0x54 bn_audio_manager.o
                0x08000bdc                void _bn::assert::show_args<char [14], int>(char const*, char const*, char const*, int, char const (&) [14], int const&)
 .text._ZN3_bn6assert9show_argsIA26_ciEEvPKcS4_S4_iRKT_RKT0_
                0x08000c30       0x54 bn_audio_manager.o
                0x08000c30                void _bn::assert::show_args<char [26], int>(char const*, char const*, char const*, int, char const (&) [26], int const&)
 .text._ZN3_bn6assert9show_argsIA33_cEEvPKcS4_S4_iRKT_
                0x08000c84       0x48 bn_audio_manager.o
                0x08000c84                void _bn::assert::show_args<char [33]>(char const*, char const*, char const*, int, char const (&) [33])
 .text._ZN3_bn6assert9show_argsIA25_cEEvPKcS4_S4_iRKT_
                0x08000ccc       0x48 bn_audio_manager.o
                0x08000ccc                void _bn::assert::show_args<char [25]>(char const*, char const*, char const*, int, char const (&) [25])
 .text._ZN3_bn6assert9show_argsIA24_cEEvPKcS4_S4_iRKT_
                0x08000d14       0x48 bn_audio_manager.o
                0x08000d14                void _bn::assert::show_args<char [24]>(char const*, char const*, char const*, int, char const (&) [24])
 .text._ZN3_bn6assert9show_argsIA26_cEEvPKcS4_S4_iRKT_
                0x08000d5c       0x48 bn_audio_manager.o
                0x08000d5c                void _bn::assert::show_args<char [26]>(char const*, char const*, char const*, int, char const (&) [26])
 .text._ZN3_bn6assert9show_argsIA25_ciEEvPKcS4_S4_iRKT_RKT0_
                0x08000da4       0x54 bn_audio_manager.o
                0x08000da4                void _bn::assert::show_args<char [25], int>(char const*, char const*, char const*, int, char const (&) [25], int const&)
 .text._ZN2bn13audio_manager16execute_commandsEv
                0x08000df8      0x6a8 bn_audio_manager.o
                0x08000df8                bn::audio_manager::execute_commands()
 .text._ZN3_bn6assert9show_argsIA17_cEEvPKcS4_S4_iRKT_
                0x080014a0       0x48 bn_audio_manager.o
                0x080014a0                void _bn::assert::show_args<char [17]>(char const*, char const*, char const*, int, char const (&) [17])
 .text.startup._GLOBAL__sub_I__ZN2bn5audio16update_on_vblankEv
                0x080014e8       0x98 bn_audio_manager.o
 .text._ZN3_bn6assert9show_argsIA23_cEEvPKcS4_S4_iRKT_
                0x08001580       0x48 bn_best_fit_allocator.o
                0x08001580                void _bn::assert::show_args<char [23]>(char const*, char const*, char const*, int, char const (&) [23])
 .text._ZN2bn18best_fit_allocatorD2Ev
                0x080015c8       0x34 bn_best_fit_allocator.o
                0x080015c8                bn::best_fit_allocator::~best_fit_allocator()
                0x080015c8                bn::best_fit_allocator::~best_fit_allocator()
 .text._ZN3_bn6assert9show_argsIA16_ciEEvPKcS4_S4_iRKT_RKT0_
                0x080015fc       0x54 bn_best_fit_allocator.o
                0x080015fc                void _bn::assert::show_args<char [16], int>(char const*, char const*, char const*, int, char const (&) [16], int const&)
 .text._ZN3_bn6assert9show_argsIA20_ciEEvPKcS4_S4_iRKT_RKT0_
                0x08001650       0x54 bn_best_fit_allocator.o
                0x08001650                void _bn::assert::show_args<char [20], int>(char const*, char const*, char const*, int, char const (&) [20], int const&)
 .text._ZN3_bn6assert9show_argsIA14_cEEvPKcS4_S4_iRKT_
                0x080016a4       0x48 bn_best_fit_allocator.o
                0x080016a4                void _bn::assert::show_args<char [14]>(char const*, char const*, char const*, int, char const (&) [14])
 .text._ZN3_bn6assert9show_argsIA21_cEEvPKcS4_S4_iRKT_
                0x080016ec       0x48 bn_best_fit_allocator.o
                0x080016ec                void _bn::assert::show_args<char [21]>(char const*, char const*, char const*, int, char const (&) [21])
 .text._ZN2bn18best_fit_allocator5resetEPvi
                0x08001734       0xbc bn_best_fit_allocator.o
                0x08001734                bn::best_fit_allocator::reset(void*, int)
 .text._ZN2bn17bg_blocks_manager12_GLOBAL__N_117_hw_commit_offsetEPKtjtPt
                0x080017f0       0x78 bn_bg_blocks_manager.o
 .text._ZN2bn13ostringstream11append_argsIiJA4_ctEEEvRKT_DpRKT0_.isra.0
                0x08001868       0x24 bn_bg_blocks_manager.o
 .text._ZN2bn13ostringstream11append_argsIiJA4_ciEEEvRKT_DpRKT0_.isra.0
                0x0800188c       0x24 bn_bg_blocks_manager.o
 .text._ZNK2bn18regular_bg_map_ptr2idEv
                0x080018b0       0x18 bn_bg_blocks_manager.o
                0x080018b0                bn::regular_bg_map_ptr::id() const
 .text._ZNK2bn18regular_bg_map_ptr10dimensionsEv
                0x080018c8       0x20 bn_bg_blocks_manager.o
                0x080018c8                bn::regular_bg_map_ptr::dimensions() const
 .text._ZNK2bn18regular_bg_map_ptr3bigEv
                0x080018e8       0x18 bn_bg_blocks_manager.o
                0x080018e8                bn::regular_bg_map_ptr::big() const
 .text._ZNK2bn20regular_bg_tiles_ptr3cbbEv
                0x08001900       0x18 bn_bg_blocks_manager.o
                0x08001900                bn::regular_bg_tiles_ptr::cbb() const
 .text._ZNK2bn17affine_bg_map_ptr2idEv
                0x08001918       0x18 bn_bg_blocks_manager.o
                0x08001918                bn::affine_bg_map_ptr::id() const
 .text._ZNK2bn17affine_bg_map_ptr10dimensionsEv
                0x08001930       0x20 bn_bg_blocks_manager.o
                0x08001930                bn::affine_bg_map_ptr::dimensions() const
 .text._ZNK2bn19affine_bg_tiles_ptr3cbbEv
                0x08001950       0x18 bn_bg_blocks_manager.o
                0x08001950                bn::affine_bg_tiles_ptr::cbb() const
 .text._ZN2bn17bg_blocks_manager10log_statusEv
                0x08001968      0x454 bn_bg_blocks_manager.o
                0x08001968                bn::bg_blocks_manager::log_status()
 .text._ZN2bn17bg_blocks_manager15decrease_usagesEi
                0x08001dbc       0x98 bn_bg_blocks_manager.o
                0x08001dbc                bn::bg_blocks_manager::decrease_usages(int)
 .text._ZN2bn18regular_bg_map_ptrD2Ev
                0x08001e54       0x18 bn_bg_blocks_manager.o
                0x08001e54                bn::regular_bg_map_ptr::~regular_bg_map_ptr()
                0x08001e54                bn::regular_bg_map_ptr::~regular_bg_map_ptr()
 .text._ZN2bn20regular_bg_tiles_ptrD2Ev
                0x08001e6c       0x18 bn_bg_blocks_manager.o
                0x08001e6c                bn::regular_bg_tiles_ptr::~regular_bg_tiles_ptr()
                0x08001e6c                bn::regular_bg_tiles_ptr::~regular_bg_tiles_ptr()
 .text._ZN2bn17bg_blocks_manager12_GLOBAL__N_111static_dataD2Ev
                0x08001e84       0x54 bn_bg_blocks_manager.o
 .text._ZN2bn17bg_blocks_manager4initEv
                0x08001ed8       0x8c bn_bg_blocks_manager.o
                0x08001ed8                bn::bg_blocks_manager::init()
 .text._ZN2bn17bg_blocks_manager11must_commitEi
                0x08001f64       0x18 bn_bg_blocks_manager.o
                0x08001f64                bn::bg_blocks_manager::must_commit(int)
 .text._ZN2bn17bg_blocks_manager6updateEv
                0x08001f7c      0x258 bn_bg_blocks_manager.o
                0x08001f7c                bn::bg_blocks_manager::update()
 .text._ZN3_bn6assert9show_argsIA52_ctEEvPKcS4_S4_iRKT_RKT0_
                0x080021d4       0x54 bn_bg_blocks_manager.o
                0x080021d4                void _bn::assert::show_args<char [52], unsigned short>(char const*, char const*, char const*, int, char const (&) [52], unsigned short const&)
 .text._ZN3_bn6assert9show_argsIJA20_ciA4_ctEEEvPKcS5_S5_iDpRKT_
                0x08002228       0x58 bn_bg_blocks_manager.o
                0x08002228                void _bn::assert::show_args<char [20], int, char [4], unsigned short>(char const*, char const*, char const*, int, char const (&) [20], int const&, char const (&) [4], unsigned short const&)
 .text._ZN3_bn6assert9show_argsIJA22_ciA4_ciEEEvPKcS5_S5_iDpRKT_
                0x08002280       0x58 bn_bg_blocks_manager.o
                0x08002280                void _bn::assert::show_args<char [22], int, char [4], int>(char const*, char const*, char const*, int, char const (&) [22], int const&, char const (&) [4], int const&)
 .text._ZN3_bn6assert9show_argsIJA58_ciA4_ciEEEvPKcS5_S5_iDpRKT_
                0x080022d8       0x58 bn_bg_blocks_manager.o
                0x080022d8                void _bn::assert::show_args<char [58], int, char [4], int>(char const*, char const*, char const*, int, char const (&) [58], int const&, char const (&) [4], int const&)
 .text._ZN3_bn6assert9show_argsIA38_cEEvPKcS4_S4_iRKT_
                0x08002330       0x48 bn_bg_blocks_manager.o
                0x08002330                void _bn::assert::show_args<char [38]>(char const*, char const*, char const*, int, char const (&) [38])
 .text._ZN3_bn6assert9show_argsIA27_ciEEvPKcS4_S4_iRKT_RKT0_
                0x08002378       0x54 bn_bg_blocks_manager.o
                0x08002378                void _bn::assert::show_args<char [27], int>(char const*, char const*, char const*, int, char const (&) [27], int const&)
 .text._ZN2bn17bg_blocks_manager12_GLOBAL__N_110_hw_commitEPKtNS_16compression_typeEibPt
                0x080023cc       0x6c bn_bg_blocks_manager.o
 .text._ZN3_bn6assert9show_argsIA22_ciEEvPKcS4_S4_iRKT_RKT0_
                0x08002438       0x54 bn_bg_blocks_manager.o
                0x08002438                void _bn::assert::show_args<char [22], int>(char const*, char const*, char const*, int, char const (&) [22], int const&)
 .text._ZN3_bn6assert9show_argsIA19_cEEvPKcS4_S4_iRKT_
                0x0800248c       0x48 bn_bg_blocks_manager.o
                0x0800248c                void _bn::assert::show_args<char [19]>(char const*, char const*, char const*, int, char const (&) [19])
 .text._ZN2bn17bg_blocks_manager12_GLOBAL__N_116_find_tiles_implEPKtNS_16compression_typeEib
                0x080024d4      0x100 bn_bg_blocks_manager.o
 .text._ZNK2bn21regular_bg_tiles_item10find_tilesEv
                0x080025d4       0x30 bn_bg_blocks_manager.o
                0x080025d4                bn::regular_bg_tiles_item::find_tiles() const
 .text._ZN3_bn6assert9show_argsIA22_cEEvPKcS4_S4_iRKT_
                0x08002604       0x48 bn_bg_blocks_manager.o
                0x08002604                void _bn::assert::show_args<char [22]>(char const*, char const*, char const*, int, char const (&) [22])
 .text._ZNK2bn18regular_bg_map_ptr5tilesEv
                0x0800264c       0x48 bn_bg_blocks_manager.o
                0x0800264c                bn::regular_bg_map_ptr::tiles() const
 .text._ZNK2bn17affine_bg_map_ptr5tilesEv
                0x08002694       0x48 bn_bg_blocks_manager.o
                0x08002694                bn::affine_bg_map_ptr::tiles() const
 .text._ZNK2bn18regular_bg_map_ptr7paletteEv
                0x080026dc       0x48 bn_bg_blocks_manager.o
                0x080026dc                bn::regular_bg_map_ptr::palette() const
 .text._ZNK2bn18regular_bg_map_ptr3bppEv
                0x08002724       0x4c bn_bg_blocks_manager.o
                0x08002724                bn::regular_bg_map_ptr::bpp() const
 .text._ZN2bn17bg_blocks_manager21update_affine_map_rowEiii
                0x08002770      0x168 bn_bg_blocks_manager.o
                0x08002770                bn::bg_blocks_manager::update_affine_map_row(int, int, int)
 .text._ZN2bn17bg_blocks_manager28update_affine_map_bottom_rowEiii
                0x080028d8       0x2c bn_bg_blocks_manager.o
                0x080028d8                bn::bg_blocks_manager::update_affine_map_bottom_row(int, int, int)
 .text._ZN2bn17bg_blocks_manager23set_affine_map_positionEiii
                0x08002904      0x214 bn_bg_blocks_manager.o
                0x08002904                bn::bg_blocks_manager::set_affine_map_position(int, int, int)
 .text._ZN2bn17bg_blocks_manager21update_affine_map_colEiii
                0x08002b18      0x334 bn_bg_blocks_manager.o
                0x08002b18                bn::bg_blocks_manager::update_affine_map_col(int, int, int)
 .text._ZN2bn17bg_blocks_manager27update_affine_map_right_colEiii
                0x08002e4c       0x2c bn_bg_blocks_manager.o
                0x08002e4c                bn::bg_blocks_manager::update_affine_map_right_col(int, int, int)
 .text._ZN2bn17bg_blocks_manager22update_regular_map_rowEiii
                0x08002e78      0x194 bn_bg_blocks_manager.o
                0x08002e78                bn::bg_blocks_manager::update_regular_map_row(int, int, int)
 .text._ZN2bn17bg_blocks_manager22update_regular_map_colEiii
                0x0800300c      0x1fc bn_bg_blocks_manager.o
                0x0800300c                bn::bg_blocks_manager::update_regular_map_col(int, int, int)
 .text._ZN2bn17bg_blocks_manager24set_regular_map_positionEiii
                0x08003208      0x24c bn_bg_blocks_manager.o
                0x08003208                bn::bg_blocks_manager::set_regular_map_position(int, int, int)
 .text._ZN2bn17bg_blocks_manager21set_regular_map_tilesEiONS_20regular_bg_tiles_ptrE
                0x08003454      0x258 bn_bg_blocks_manager.o
                0x08003454                bn::bg_blocks_manager::set_regular_map_tiles(int, bn::regular_bg_tiles_ptr&&)
 .text._ZN2bn17bg_blocks_manager23set_regular_map_paletteEiONS_14bg_palette_ptrE
                0x080036ac      0x220 bn_bg_blocks_manager.o
                0x080036ac                bn::bg_blocks_manager::set_regular_map_palette(int, bn::bg_palette_ptr&&)
 .text._ZN2bn17bg_blocks_manager12_GLOBAL__N_112_commit_itemERKNS1_9item_typeEb
                0x080038cc      0x1f0 bn_bg_blocks_manager.o
 .text._ZN2bn17bg_blocks_manager12_GLOBAL__N_112_create_itemEiibONS1_11create_dataE
                0x08003abc      0x840 bn_bg_blocks_manager.o
 .text._ZN2bn17bg_blocks_manager12_GLOBAL__N_112_create_implEONS1_11create_dataE
                0x080042fc      0x1fc bn_bg_blocks_manager.o
 .text._ZN2bn17bg_blocks_manager19commit_uncompressedEb
                0x080044f8       0x58 bn_bg_blocks_manager.o
                0x080044f8                bn::bg_blocks_manager::commit_uncompressed(bool)
 .text._ZN2bn17bg_blocks_manager17commit_compressedEv
                0x08004550       0x48 bn_bg_blocks_manager.o
                0x08004550                bn::bg_blocks_manager::commit_compressed()
 .text._ZN3_bn6assert9show_argsIJA32_cA15_cPKtA16_ciA17_ciA34_cN2bn11string_viewEEEEvPKcSC_SC_iDpRKT_
                0x08004598       0x90 bn_bg_blocks_manager.o
                0x08004598                void _bn::assert::show_args<char [32], char [15], unsigned short const*, char [16], int, char [17], int, char [34], bn::string_view>(char const*, char const*, char const*, int, char const (&) [32], char const (&) [15], unsigned short const* const&, char const (&) [16], int const&, char const (&) [17], int const&, char const (&) [34], bn::string_view const&)
 .text._ZN2bn17bg_blocks_manager20create_regular_tilesERKNS_21regular_bg_tiles_itemEb
                0x08004628      0x138 bn_bg_blocks_manager.o
                0x08004628                bn::bg_blocks_manager::create_regular_tiles(bn::regular_bg_tiles_item const&, bool)
 .text._ZN3_bn6assert9show_argsIJA30_cA13_cPKtA14_ciA15_ciA17_ciA34_cN2bn11string_viewEEEEvPKcSD_SD_iDpRKT_
                0x08004760       0xa0 bn_bg_blocks_manager.o
                0x08004760                void _bn::assert::show_args<char [30], char [13], unsigned short const*, char [14], int, char [15], int, char [17], int, char [34], bn::string_view>(char const*, char const*, char const*, int, char const (&) [30], char const (&) [13], unsigned short const* const&, char const (&) [14], int const&, char const (&) [15], int const&, char const (&) [17], int const&, char const (&) [34], bn::string_view const&)
 .text._ZN3_bn6assert9show_argsIA31_cEEvPKcS4_S4_iRKT_
                0x08004800       0x48 bn_bg_blocks_manager.o
                0x08004800                void _bn::assert::show_args<char [31]>(char const*, char const*, char const*, int, char const (&) [31])
 .text._ZN3_bn6assert9show_argsIJA34_cA13_cPKtA14_ciA15_ciA17_ciS2_N2bn11string_viewEEEEvPKcSC_SC_iDpRKT_
                0x08004848       0xa0 bn_bg_blocks_manager.o
                0x08004848                void _bn::assert::show_args<char [34], char [13], unsigned short const*, char [14], int, char [15], int, char [17], int, char [34], bn::string_view>(char const*, char const*, char const*, int, char const (&) [34], char const (&) [13], unsigned short const* const&, char const (&) [14], int const&, char const (&) [15], int const&, char const (&) [17], int const&, char const (&) [34], bn::string_view const&)
 .text._ZN2bn17bg_blocks_manager22create_new_regular_mapERKNS_19regular_bg_map_itemEPKtONS_20regular_bg_tiles_ptrEONS_14bg_palette_ptrEb
                0x080048e8      0x284 bn_bg_blocks_manager.o
                0x080048e8                bn::bg_blocks_manager::create_new_regular_map(bn::regular_bg_map_item const&, unsigned short const*, bn::regular_bg_tiles_ptr&&, bn::bg_palette_ptr&&, bool)
 .text._ZNK2bn19regular_bg_map_item14create_new_mapENS_20regular_bg_tiles_ptrENS_14bg_palette_ptrE
                0x08004b6c       0x4c bn_bg_blocks_manager.o
                0x08004b6c                bn::regular_bg_map_item::create_new_map(bn::regular_bg_tiles_ptr, bn::bg_palette_ptr) const
 .text._ZN2bn18regular_bg_map_ptr10create_newERKNS_15regular_bg_itemE
                0x08004bb8       0x64 bn_bg_blocks_manager.o
                0x08004bb8                bn::regular_bg_map_ptr::create_new(bn::regular_bg_item const&)
 .text._ZN3_bn6assert9show_argsIJA37_ciA4_ciEEEvPKcS5_S5_iDpRKT_
                0x08004c1c       0x58 bn_bg_blocks_manager.o
                0x08004c1c                void _bn::assert::show_args<char [37], int, char [4], int>(char const*, char const*, char const*, int, char const (&) [37], int const&, char const (&) [4], int const&)
 .text._ZN2bn17bg_blocks_manager33set_regular_map_tiles_and_paletteEiONS_20regular_bg_tiles_ptrEONS_14bg_palette_ptrE
                0x08004c74      0x2e4 bn_bg_blocks_manager.o
                0x08004c74                bn::bg_blocks_manager::set_regular_map_tiles_and_palette(int, bn::regular_bg_tiles_ptr&&, bn::bg_palette_ptr&&)
 .text._ZN2bn17bg_blocks_manager12_GLOBAL__N_122_find_regular_map_implERKNS_19regular_bg_map_itemEPKtRKNS_20regular_bg_tiles_ptrERKNS_14bg_palette_ptrE
                0x08004f58      0x2e4 bn_bg_blocks_manager.o
 .text._ZN2bn17bg_blocks_manager18create_regular_mapERKNS_19regular_bg_map_itemEPKtONS_20regular_bg_tiles_ptrEONS_14bg_palette_ptrEb
                0x0800523c      0x284 bn_bg_blocks_manager.o
                0x0800523c                bn::bg_blocks_manager::create_regular_map(bn::regular_bg_map_item const&, unsigned short const*, bn::regular_bg_tiles_ptr&&, bn::bg_palette_ptr&&, bool)
 .text._ZN2bn18regular_bg_map_ptr6createERKNS_15regular_bg_itemEi
                0x080054c0       0xdc bn_bg_blocks_manager.o
                0x080054c0                bn::regular_bg_map_ptr::create(bn::regular_bg_item const&, int)
 .text._ZNK2bn19regular_bg_map_item8find_mapERKNS_20regular_bg_tiles_ptrERKNS_14bg_palette_ptrE
                0x0800559c       0x24 bn_bg_blocks_manager.o
                0x0800559c                bn::regular_bg_map_item::find_map(bn::regular_bg_tiles_ptr const&, bn::bg_palette_ptr const&) const
 .text._ZN2bn18regular_bg_map_ptr21set_tiles_and_paletteERKNS_21regular_bg_tiles_itemERKNS_15bg_palette_itemE
                0x080055c0      0x17c bn_bg_blocks_manager.o
                0x080055c0                bn::regular_bg_map_ptr::set_tiles_and_palette(bn::regular_bg_tiles_item const&, bn::bg_palette_item const&)
 .text._ZN3_bn6assert9show_argsIA39_ciEEvPKcS4_S4_iRKT_RKT0_
                0x0800573c       0x54 bn_bg_blocks_manager.o
                0x0800573c                void _bn::assert::show_args<char [39], int>(char const*, char const*, char const*, int, char const (&) [39], int const&)
 .text.startup._GLOBAL__sub_I__ZN2bn7bg_maps16used_cells_countEv
                0x08005790       0x88 bn_bg_blocks_manager.o
 .text._ZN2bn11bgs_manager12_GLOBAL__N_129_check_unique_regular_big_mapERNS1_9item_typeE
                0x08005818       0x68 bn_bgs_manager.o
 .text._ZN2bn11bgs_manager12_GLOBAL__N_111static_dataD2Ev
                0x08005880       0x10 bn_bgs_manager.o
 .text._ZN2bn11bgs_manager12_GLOBAL__N_133_update_item_hw_affine_attributesERKNS1_9item_typeE
                0x08005890       0x48 bn_bgs_manager.o
 .text._ZN2bn14regular_bg_ptr12set_positionENS_7fixed_tILi12EEES2_
                0x080058d8       0x70 bn_bgs_manager.o
                0x080058d8                bn::regular_bg_ptr::set_position(bn::fixed_t<12>, bn::fixed_t<12>)
 .text._ZN2bn14regular_bg_ptr24set_blending_top_enabledEb
                0x08005948       0x3c bn_bgs_manager.o
                0x08005948                bn::regular_bg_ptr::set_blending_top_enabled(bool)
 .text._ZN2bn14regular_bg_ptr27set_blending_bottom_enabledEb
                0x08005984       0x3c bn_bgs_manager.o
                0x08005984                bn::regular_bg_ptr::set_blending_bottom_enabled(bool)
 .text._ZNK2bn14regular_bg_ptr7visibleEv
                0x080059c0        0xc bn_bgs_manager.o
                0x080059c0                bn::regular_bg_ptr::visible() const
 .text._ZN2bn14regular_bg_ptr11set_visibleEb
                0x080059cc       0x30 bn_bgs_manager.o
                0x080059cc                bn::regular_bg_ptr::set_visible(bool)
 .text._ZN2bn14regular_bg_ptr21set_visible_in_windowEbRNS_6windowE
                0x080059fc       0x14 bn_bgs_manager.o
                0x080059fc                bn::regular_bg_ptr::set_visible_in_window(bool, bn::window&)
 .text._ZN2bn11bgs_manager4initEv
                0x08005a10       0x8c bn_bgs_manager.o
                0x08005a10                bn::bgs_manager::init()
 .text._ZN2bn11bgs_manager5hw_idEPv
                0x08005a9c        0x8 bn_bgs_manager.o
                0x08005a9c                bn::bgs_manager::hw_id(void*)
 .text._ZN2bn11bgs_manager11hw_positionEPv
                0x08005aa4        0x4 bn_bgs_manager.o
                0x08005aa4                bn::bgs_manager::hw_position(void*)
 .text._ZN2bn11bgs_manager14mat_attributesEPv
                0x08005aa8        0x4 bn_bgs_manager.o
                0x08005aa8                bn::bgs_manager::mat_attributes(void*)
 .text._ZN2bn11bgs_manager9put_belowEPv
                0x08005aac       0x6c bn_bgs_manager.o
                0x08005aac                bn::bgs_manager::put_below(void*)
 .text._ZN2bn14regular_bg_ptr9put_belowEv
                0x08005b18       0x10 bn_bgs_manager.o
                0x08005b18                bn::regular_bg_ptr::put_below()
 .text._ZN2bn11bgs_manager18set_show_in_windowEPvib
                0x08005b28       0x18 bn_bgs_manager.o
                0x08005b28                bn::bgs_manager::set_show_in_window(void*, int, bool)
 .text._ZN2bn11bgs_manager20update_windows_flagsEPj
                0x08005b40       0x7c bn_bgs_manager.o
                0x08005b40                bn::bgs_manager::update_windows_flags(unsigned int*)
 .text._ZN2bn11bgs_manager14update_camerasEv
                0x08005bbc      0x14c bn_bgs_manager.o
                0x08005bbc                bn::bgs_manager::update_cameras()
 .text._ZN2bn11bgs_manager28update_regular_map_tiles_cbbEii
                0x08005d08       0xa8 bn_bgs_manager.o
                0x08005d08                bn::bgs_manager::update_regular_map_tiles_cbb(int, int)
 .text._ZN2bn11bgs_manager30update_regular_map_palette_bppEiNS_8bpp_modeE
                0x08005db0       0xac bn_bgs_manager.o
                0x08005db0                bn::bgs_manager::update_regular_map_palette_bpp(int, bn::bpp_mode)
 .text._ZN2bn11bgs_manager36fill_hblank_effect_regular_positionsEiPKNS_7fixed_tILi12EEEPt
                0x08005e5c       0x38 bn_bgs_manager.o
                0x08005e5c                bn::bgs_manager::fill_hblank_effect_regular_positions(int, bn::fixed_t<12> const*, unsigned short*)
 .text._ZN2bn11bgs_manager45fill_hblank_effect_pivot_horizontal_positionsEPvPKNS_7fixed_tILi12EEEPj
                0x08005e94       0x24 bn_bgs_manager.o
                0x08005e94                bn::bgs_manager::fill_hblank_effect_pivot_horizontal_positions(void*, bn::fixed_t<12> const*, unsigned int*)
 .text._ZN2bn11bgs_manager43fill_hblank_effect_pivot_vertical_positionsEPvPKNS_7fixed_tILi12EEEPj
                0x08005eb8       0x24 bn_bgs_manager.o
                0x08005eb8                bn::bgs_manager::fill_hblank_effect_pivot_vertical_positions(void*, bn::fixed_t<12> const*, unsigned int*)
 .text._ZN2bn11bgs_manager6commitEb
                0x08005edc       0x58 bn_bgs_manager.o
                0x08005edc                bn::bgs_manager::commit(bool)
 .text._ZN2bn11bgs_manager4stopEv
                0x08005f34       0x28 bn_bgs_manager.o
                0x08005f34                bn::bgs_manager::stop()
 .text._ZN3_bn6assert9show_argsIA17_ciEEvPKcS4_S4_iRKT_RKT0_
                0x08005f5c       0x54 bn_bgs_manager.o
                0x08005f5c                void _bn::assert::show_args<char [17], int>(char const*, char const*, char const*, int, char const (&) [17], int const&)
 .text._ZN3_bn6assert9show_argsIA30_cEEvPKcS4_S4_iRKT_
                0x08005fb0       0x48 bn_bgs_manager.o
                0x08005fb0                void _bn::assert::show_args<char [30]>(char const*, char const*, char const*, int, char const (&) [30])
 .text._ZN3_bn6assert9show_argsIA27_cEEvPKcS4_S4_iRKT_
                0x08005ff8       0x48 bn_bgs_manager.o
                0x08005ff8                void _bn::assert::show_args<char [27]>(char const*, char const*, char const*, int, char const (&) [27])
 .text._ZN3_bn6assert9show_argsIA46_cEEvPKcS4_S4_iRKT_
                0x08006040       0x48 bn_bgs_manager.o
                0x08006040                void _bn::assert::show_args<char [46]>(char const*, char const*, char const*, int, char const (&) [46])
 .text._ZN2bn11bgs_manager15rebuild_handlesEv.part.0
                0x08006088      0x1a8 bn_bgs_manager.o
 .text._ZN2bn18regular_bg_builder11release_mapEv
                0x08006230       0x78 bn_bgs_manager.o
                0x08006230                bn::regular_bg_builder::release_map()
 .text._ZN2bn11bgs_manager37fill_hblank_effect_regular_attributesEPvPKNS_21regular_bg_attributesEPt
                0x080062a8      0x100 bn_bgs_manager.o
                0x080062a8                bn::bgs_manager::fill_hblank_effect_regular_attributes(void*, bn::regular_bg_attributes const*, unsigned short*)
 .text._ZN2bn11bgs_manager6updateEv
                0x080063a8      0x16c bn_bgs_manager.o
                0x080063a8                bn::bgs_manager::update()
 .text._ZN2bn11bgs_manager15commit_big_mapsEv
                0x08006514      0x1d0 bn_bgs_manager.o
                0x08006514                bn::bgs_manager::commit_big_maps()
 .text._ZN2bn11bgs_manager12_GLOBAL__N_19item_type18update_regular_mapEv
                0x080066e4      0x1c8 bn_bgs_manager.o
 .text._ZN2bn11bgs_manager15set_regular_mapEPvONS_18regular_bg_map_ptrE
                0x080068ac       0xb4 bn_bgs_manager.o
                0x080068ac                bn::bgs_manager::set_regular_map(void*, bn::regular_bg_map_ptr&&)
 .text._ZN2bn11bgs_manager36fill_hblank_effect_affine_attributesEPvPKNS_20affine_bg_attributesEPt
                0x08006960      0x104 bn_bgs_manager.o
                0x08006960                bn::bgs_manager::fill_hblank_effect_affine_attributes(void*, bn::affine_bg_attributes const*, unsigned short*)
 .text._ZN2bn11bgs_manager10affine_mapEPv
                0x08006a64       0x34 bn_bgs_manager.o
                0x08006a64                bn::bgs_manager::affine_map(void*)
 .text._ZN2bn11bgs_manager11regular_mapEPv
                0x08006a98       0x34 bn_bgs_manager.o
                0x08006a98                bn::bgs_manager::regular_map(void*)
 .text._ZN2bn14regular_bg_ptr8set_itemERKNS_15regular_bg_itemE
                0x08006acc      0x144 bn_bgs_manager.o
                0x08006acc                bn::regular_bg_ptr::set_item(bn::regular_bg_item const&)
 .text._ZN2bn11bgs_manager12_GLOBAL__N_112_insert_itemERNS1_9item_typeE
                0x08006c10      0x104 bn_bgs_manager.o
 .text._ZN3_bn6assert9show_argsIA13_cEEvPKcS4_S4_iRKT_
                0x08006d14       0x48 bn_bgs_manager.o
                0x08006d14                void _bn::assert::show_args<char [13]>(char const*, char const*, char const*, int, char const (&) [13])
 .text._ZN2bn11bgs_manager6createEONS_18regular_bg_builderE
                0x08006d5c      0x1d4 bn_bgs_manager.o
                0x08006d5c                bn::bgs_manager::create(bn::regular_bg_builder&&)
 .text._ZNK2bn15regular_bg_item9create_bgENS_7fixed_tILi12EEES2_
                0x08006f30       0x78 bn_bgs_manager.o
                0x08006f30                bn::regular_bg_item::create_bg(bn::fixed_t<12>, bn::fixed_t<12>) const
 .text.startup._GLOBAL__sub_I__ZN2bn3bgs16used_items_countEv
                0x08006fa8       0x90 bn_bgs_manager.o
 .text._ZN2bn10camera_ptrD2Ev
                0x08007038       0x38 bn_cameras_manager.o
                0x08007038                bn::camera_ptr::~camera_ptr()
                0x08007038                bn::camera_ptr::~camera_ptr()
 .text._ZNK2bn10camera_ptr8positionEv
                0x08007070       0x14 bn_cameras_manager.o
                0x08007070                bn::camera_ptr::position() const
 .text._ZN2bn15cameras_manager4initEv
                0x08007084       0x24 bn_cameras_manager.o
                0x08007084                bn::cameras_manager::init()
 .text._ZN2bn15cameras_manager6updateEv
                0x080070a8       0x28 bn_cameras_manager.o
                0x080070a8                bn::cameras_manager::update()
 .text.startup._GLOBAL__sub_I__ZN2bn7cameras16used_items_countEv
                0x080070d0       0x24 bn_cameras_manager.o
 .text._ZN2bn4core12_GLOBAL__N_14stopEb
                0x080070f4       0x54 bn_core.o
 .text._ZN2bn4core12_GLOBAL__N_111update_implEv
                0x08007148      0x114 bn_core.o
 .text._ZN2bn11string_viewC2EPKc
                0x0800725c       0x1c bn_core.o
                0x0800725c                bn::string_view::string_view(char const*)
                0x0800725c                bn::string_view::string_view(char const*)
 .text._ZN3_bn6assert12_GLOBAL__N_110_show_implEPKcS3_S3_iRKN2bn11string_viewE
                0x08007278       0x80 bn_core.o
 .text._ZN2bn4core6updateEv
                0x080072f8       0x78 bn_core.o
                0x080072f8                bn::core::update()
 .text._ZN2bn4core4initERKNS_8optionalINS_5colorEEERKNS_11string_viewE
                0x08007370      0x128 bn_core.o
                0x08007370                bn::core::init(bn::optional<bn::color> const&, bn::string_view const&)
 .text._ZN2bn4core4initEv
                0x08007498       0x24 bn_core.o
                0x08007498                bn::core::init()
 .text._ZN2bn4core9on_vblankEv
                0x080074bc       0x2c bn_core.o
                0x080074bc                bn::core::on_vblank()
 .text._ZN3_bn6assert4showEPKcS2_S2_iRKN2bn12istring_baseE
                0x080074e8       0x18 bn_core.o
                0x080074e8                _bn::assert::show(char const*, char const*, char const*, int, bn::istring_base const&)
 .text.startup._GLOBAL__sub_I__ZN2bn4core4initEv
                0x08007500       0x4c bn_core.o
 .text._ZN2bn15display_manager12_GLOBAL__N_111static_dataD2Ev
                0x0800754c       0x34 bn_display_manager.o
 .text._ZN2bn15display_manager12_GLOBAL__N_134_update_rect_windows_hw_boundariesEi
                0x08007580       0x7c bn_display_manager.o
 .text._ZN2bn6window11set_show_bgERKNS_14regular_bg_ptrEb
                0x080075fc       0x14 bn_display_manager.o
                0x080075fc                bn::window::set_show_bg(bn::regular_bg_ptr const&, bool)
 .text._ZNK2bn6window12show_spritesEv
                0x08007610       0x18 bn_display_manager.o
                0x08007610                bn::window::show_sprites() const
 .text._ZN2bn6window16set_show_spritesEb
                0x08007628       0x30 bn_display_manager.o
                0x08007628                bn::window::set_show_sprites(bool)
 .text._ZN2bn6window17set_show_blendingEb
                0x08007658       0x30 bn_display_manager.o
                0x08007658                bn::window::set_show_blending(bool)
 .text._ZNK2bn13inside_window7visibleEv
                0x08007688       0x10 bn_display_manager.o
                0x08007688                bn::inside_window::visible() const
 .text._ZN2bn13inside_window11set_visibleEb
                0x08007698       0x20 bn_display_manager.o
                0x08007698                bn::inside_window::set_visible(bool)
 .text._ZN2bn15display_manager4initEv
                0x080076b8       0xa4 bn_display_manager.o
                0x080076b8                bn::display_manager::init()
 .text._ZN2bn15display_manager8set_modeEi
                0x0800775c       0x1c bn_display_manager.o
                0x0800775c                bn::display_manager::set_mode(int)
 .text._ZN2bn15display_manager14set_bg_enabledEib
                0x08007778       0x18 bn_display_manager.o
                0x08007778                bn::display_manager::set_bg_enabled(int, bool)
 .text._ZN2bn15display_manager15disable_all_bgsEv
                0x08007790       0x14 bn_display_manager.o
                0x08007790                bn::display_manager::disable_all_bgs()
 .text._ZN2bn15display_manager36fill_mosaic_hblank_effect_attributesEPKNS_17mosaic_attributesEPt
                0x080077a4       0xb4 bn_display_manager.o
                0x080077a4                bn::display_manager::fill_mosaic_hblank_effect_attributes(bn::mosaic_attributes const*, unsigned short*)
 .text._ZN2bn15display_manager27set_blending_top_bg_enabledEib
                0x08007858       0x20 bn_display_manager.o
                0x08007858                bn::display_manager::set_blending_top_bg_enabled(int, bool)
 .text._ZN2bn15display_manager30set_blending_bottom_bg_enabledEib
                0x08007878       0x20 bn_display_manager.o
                0x08007878                bn::display_manager::set_blending_bottom_bg_enabled(int, bool)
 .text._ZN2bn15display_manager32blending_transparency_top_weightEv
                0x08007898       0x18 bn_display_manager.o
                0x08007898                bn::display_manager::blending_transparency_top_weight()
 .text._ZN2bn15display_manager35blending_transparency_bottom_weightEv
                0x080078b0       0x28 bn_display_manager.o
                0x080078b0                bn::display_manager::blending_transparency_bottom_weight()
 .text._ZN2bn15display_manager51fill_blending_transparency_hblank_effect_attributesEPKNS_32blending_transparency_attributesEPt
                0x080078d8       0x30 bn_display_manager.o
                0x080078d8                bn::display_manager::fill_blending_transparency_hblank_effect_attributes(bn::blending_transparency_attributes const*, unsigned short*)
 .text._ZN2bn15display_manager21blending_fade_enabledEv
                0x08007908        0xc bn_display_manager.o
                0x08007908                bn::display_manager::blending_fade_enabled()
 .text._ZN2bn15display_manager39fill_blending_fade_hblank_effect_alphasEPKNS_19blending_fade_alphaEPt
                0x08007914       0x24 bn_display_manager.o
                0x08007914                bn::display_manager::fill_blending_fade_hblank_effect_alphas(bn::blending_fade_alpha const*, unsigned short*)
 .text._ZN2bn15display_manager26update_windows_visible_bgsEv
                0x08007938       0x14 bn_display_manager.o
                0x08007938                bn::display_manager::update_windows_visible_bgs()
 .text._ZN2bn15display_manager36rect_window_hw_horizontal_boundariesEi
                0x0800794c       0x18 bn_display_manager.o
                0x0800794c                bn::display_manager::rect_window_hw_horizontal_boundaries(int)
 .text._ZN2bn15display_manager34rect_window_hw_vertical_boundariesEi
                0x08007964       0x18 bn_display_manager.o
                0x08007964                bn::display_manager::rect_window_hw_vertical_boundaries(int)
 .text._ZN2bn15display_manager52fill_rect_window_hblank_effect_horizontal_boundariesERKSt4pairIiiEPKS1_INS_7fixed_tILi12EEES6_EPt
                0x0800797c      0x134 bn_display_manager.o
                0x0800797c                bn::display_manager::fill_rect_window_hblank_effect_horizontal_boundaries(std::pair<int, int> const&, std::pair<bn::fixed_t<12>, bn::fixed_t<12> > const*, unsigned short*)
 .text._ZN2bn15display_manager50fill_rect_window_hblank_effect_vertical_boundariesERKSt4pairIiiEPKS1_INS_7fixed_tILi12EEES6_EPt
                0x08007ab0      0x134 bn_display_manager.o
                0x08007ab0                bn::display_manager::fill_rect_window_hblank_effect_vertical_boundaries(std::pair<int, int> const&, std::pair<bn::fixed_t<12>, bn::fixed_t<12> > const*, unsigned short*)
 .text._ZN2bn15display_manager36fill_green_swap_hblank_effect_statesEPKbPt
                0x08007be4       0x38 bn_display_manager.o
                0x08007be4                bn::display_manager::fill_green_swap_hblank_effect_states(bool const*, unsigned short*)
 .text._ZN2bn15display_manager14update_camerasEv
                0x08007c1c       0x40 bn_display_manager.o
                0x08007c1c                bn::display_manager::update_cameras()
 .text._ZN2bn15display_manager6updateEv
                0x08007c5c      0x254 bn_display_manager.o
                0x08007c5c                bn::display_manager::update()
 .text._ZN2bn15display_manager6commitEv
                0x08007eb0      0x12c bn_display_manager.o
                0x08007eb0                bn::display_manager::commit()
 .text._ZN2bn15display_manager4stopEv
                0x08007fdc       0x28 bn_display_manager.o
                0x08007fdc                bn::display_manager::stop()
 .text._ZN3_bn6assert9show_argsIA66_cEEvPKcS4_S4_iRKT_
                0x08008004       0x48 bn_display_manager.o
                0x08008004                void _bn::assert::show_args<char [66]>(char const*, char const*, char const*, int, char const (&) [66])
 .text._ZN3_bn6assert9show_argsIA29_cN2bn7fixed_tILi12EEEEEvPKcS7_S7_iRKT_RKT0_
                0x0800804c       0x54 bn_display_manager.o
                0x0800804c                void _bn::assert::show_args<char [29], bn::fixed_t<12> >(char const*, char const*, char const*, int, char const (&) [29], bn::fixed_t<12> const&)
 .text._ZN2bn8blending22set_transparency_alphaENS_7fixed_tILi12EEE
                0x080080a0       0x94 bn_display_manager.o
                0x080080a0                bn::blending::set_transparency_alpha(bn::fixed_t<12>)
 .text._ZN3_bn6assert9show_argsIA34_cN2bn7fixed_tILi12EEEEEvPKcS7_S7_iRKT_RKT0_
                0x08008134       0x54 bn_display_manager.o
                0x08008134                void _bn::assert::show_args<char [34], bn::fixed_t<12> >(char const*, char const*, char const*, int, char const (&) [34], bn::fixed_t<12> const&)
 .text._ZN2bn8blending27set_transparency_top_weightENS_7fixed_tILi12EEE
                0x08008188       0x7c bn_display_manager.o
                0x08008188                bn::blending::set_transparency_top_weight(bn::fixed_t<12>)
 .text._ZN3_bn6assert9show_argsIA37_cN2bn7fixed_tILi12EEEEEvPKcS7_S7_iRKT_RKT0_
                0x08008204       0x54 bn_display_manager.o
                0x08008204                void _bn::assert::show_args<char [37], bn::fixed_t<12> >(char const*, char const*, char const*, int, char const (&) [37], bn::fixed_t<12> const&)
 .text._ZN2bn8blending30set_transparency_bottom_weightENS_7fixed_tILi12EEE
                0x08008258       0x80 bn_display_manager.o
                0x08008258                bn::blending::set_transparency_bottom_weight(bn::fixed_t<12>)
 .text._ZN2bn13ostringstream11append_argsINS_7fixed_tILi12EEEJA4_cS3_EEEvRKT_DpRKT0_.isra.0
                0x080082d8       0xb4 bn_display_manager.o
 .text._ZN3_bn6assert9show_argsIJA24_cN2bn7fixed_tILi12EEEA4_cS5_EEEvPKcS8_S8_iDpRKT_
                0x0800838c       0x58 bn_display_manager.o
                0x0800838c                void _bn::assert::show_args<char [24], bn::fixed_t<12>, char [4], bn::fixed_t<12> >(char const*, char const*, char const*, int, char const (&) [24], bn::fixed_t<12> const&, char const (&) [4], bn::fixed_t<12> const&)
 .text._ZN2bn11rect_window14set_boundariesENS_7fixed_tILi12EEES2_S2_S2_
                0x080083e4       0xd8 bn_display_manager.o
                0x080083e4                bn::rect_window::set_boundaries(bn::fixed_t<12>, bn::fixed_t<12>, bn::fixed_t<12>, bn::fixed_t<12>)
 .text.startup._GLOBAL__sub_I__ZNK2bn6window7show_bgERKNS_14regular_bg_ptrE
                0x080084bc       0xa4 bn_display_manager.o
 .text._ZN2bn12gpio_manager5sleepEv
                0x08008560       0x28 bn_gpio_manager.o
                0x08008560                bn::gpio_manager::sleep()
 .text._ZN2bn22hblank_effects_manager12_GLOBAL__N_19item_type18_output_values_ptrEv
                0x08008588       0x40 bn_hblank_effects_manager.o
 .text._ZN2bn22hblank_effects_manager7disableEv
                0x080085c8       0x24 bn_hblank_effects_manager.o
                0x080085c8                bn::hblank_effects_manager::disable()
 .text._ZN2bn22hblank_effects_manager6commitEv
                0x080085ec       0x88 bn_hblank_effects_manager.o
                0x080085ec                bn::hblank_effects_manager::commit()
 .text._ZN2bn22hblank_effects_manager12_GLOBAL__N_110_is_uint32ENS0_12handler_typeE
                0x08008674       0x64 bn_hblank_effects_manager.o
 .text._ZN2bn22hblank_effects_manager12_GLOBAL__N_19item_type12check_updateEv
                0x080086d8     0x1640 bn_hblank_effects_manager.o
 .text._ZN3_bn6assert9show_argsIA18_cEEvPKcS4_S4_iRKT_
                0x08009d18       0x48 bn_hblank_effects_manager.o
                0x08009d18                void _bn::assert::show_args<char [18]>(char const*, char const*, char const*, int, char const (&) [18])
 .text._ZN2bn22hblank_effects_manager6updateEv
                0x08009d60      0x1ec bn_hblank_effects_manager.o
                0x08009d60                bn::hblank_effects_manager::update()
 .text._ZN2bn22hblank_effects_manager4initEv
                0x08009f4c      0x190 bn_hblank_effects_manager.o
                0x08009f4c                bn::hblank_effects_manager::init()
 .text.startup._GLOBAL__sub_I__ZN2bn4hbes10used_countEv
                0x0800a0dc       0xe8 bn_hblank_effects_manager.o
 .text._ZN2bn12hdma_manager4initEv
                0x0800a1c4       0x40 bn_hdma_manager.o
                0x0800a1c4                bn::hdma_manager::init()
 .text._ZN2bn12hdma_manager10force_stopEv
                0x0800a204       0x3c bn_hdma_manager.o
                0x0800a204                bn::hdma_manager::force_stop()
 .text._ZN2bn12hdma_manager7disableEv
                0x0800a240       0x30 bn_hdma_manager.o
                0x0800a240                bn::hdma_manager::disable()
 .text._ZN2bn12hdma_manager6updateEv
                0x0800a270       0x6c bn_hdma_manager.o
                0x0800a270                bn::hdma_manager::update()
 .text._ZN2bn12hdma_manager6commitEb
                0x0800a2dc      0x120 bn_hdma_manager.o
                0x0800a2dc                bn::hdma_manager::commit(bool)
 .text.startup._GLOBAL__sub_I__ZN2bn4hdma7runningEv
                0x0800a3fc       0x34 bn_hdma_manager.o
 .text._ZN2bn6keypad9a_pressedEv
                0x0800a430       0x10 bn_keypad_manager.o
                0x0800a430                bn::keypad::a_pressed()
 .text._ZN2bn6keypad9b_pressedEv
                0x0800a440       0x10 bn_keypad_manager.o
                0x0800a440                bn::keypad::b_pressed()
 .text._ZN2bn6keypad14select_pressedEv
                0x0800a450       0x10 bn_keypad_manager.o
                0x0800a450                bn::keypad::select_pressed()
 .text._ZN2bn14keypad_manager4stopEv
                0x0800a460        0x4 bn_keypad_manager.o
                0x0800a460                bn::keypad_manager::stop()
 .text._ZN2bn14keypad_manager6updateEv
                0x0800a464       0xa8 bn_keypad_manager.o
                0x0800a464                bn::keypad_manager::update()
 .text._ZN2bn14keypad_manager4initERKNS_11string_viewE
                0x0800a50c       0x64 bn_keypad_manager.o
                0x0800a50c                bn::keypad_manager::init(bn::string_view const&)
 .text._ZN3_bn6assert9show_argsIA16_cEEvPKcS4_S4_iRKT_
                0x0800a570       0x48 bn_keypad_manager.o
                0x0800a570                void _bn::assert::show_args<char [16]>(char const*, char const*, char const*, int, char const (&) [16])
 .text._ZN2bn12link_manager4initEv
                0x0800a5b8        0xc bn_link_manager.o
                0x0800a5b8                bn::link_manager::init()
 .text._ZN2bn12link_manager6activeEv
                0x0800a5c4        0xc bn_link_manager.o
                0x0800a5c4                bn::link_manager::active()
 .text._ZN2bn12link_manager7disableEv
                0x0800a5d0       0x18 bn_link_manager.o
                0x0800a5d0                bn::link_manager::disable()
 .text._ZN2bn14memory_manager12_GLOBAL__N_111static_dataD2Ev
                0x0800a5e8       0x10 bn_memory_manager.o
 .text._ZN2bn14memory_manager4initEv
                0x0800a5f8       0x2c bn_memory_manager.o
                0x0800a5f8                bn::memory_manager::init()
 .text.startup._GLOBAL__sub_I__Znwj
                0x0800a624       0x20 bn_memory_manager.o
 .text._ZN2bn16palettes_manager12_GLOBAL__N_111static_dataD2Ev
                0x0800a644        0x4 bn_palettes_manager.o
 .text._ZN2bn2hw8palettes9grayscaleEPKNS_5colorEiiPS2_.part.0
                0x0800a648       0x40 bn_palettes_manager.o
 .text._ZN2bn14bg_palette_ptrC2ERKS0_
                0x0800a688       0x2c bn_palettes_manager.o
                0x0800a688                bn::bg_palette_ptr::bg_palette_ptr(bn::bg_palette_ptr const&)
                0x0800a688                bn::bg_palette_ptr::bg_palette_ptr(bn::bg_palette_ptr const&)
 .text._ZNK2bn14bg_palette_ptr3bppEv
                0x0800a6b4       0x20 bn_palettes_manager.o
                0x0800a6b4                bn::bg_palette_ptr::bpp() const
 .text._ZN2bn18sprite_palette_ptrC2ERKS0_
                0x0800a6d4       0x1c bn_palettes_manager.o
                0x0800a6d4                bn::sprite_palette_ptr::sprite_palette_ptr(bn::sprite_palette_ptr const&)
                0x0800a6d4                bn::sprite_palette_ptr::sprite_palette_ptr(bn::sprite_palette_ptr const&)
 .text._ZNK2bn18sprite_palette_ptr3bppEv
                0x0800a6f0       0x1c bn_palettes_manager.o
                0x0800a6f0                bn::sprite_palette_ptr::bpp() const
 .text._ZNK2bn13palettes_bank10log_statusEv
                0x0800a70c      0x17c bn_palettes_manager.o
                0x0800a70c                bn::palettes_bank::log_status() const
 .text._ZN2bn13palettes_bank10find_bpp_4ERKNS_4spanIKNS_5colorEEEt
                0x0800a888      0x118 bn_palettes_manager.o
                0x0800a888                bn::palettes_bank::find_bpp_4(bn::span<bn::color const> const&, unsigned short)
 .text._ZNK2bn13palettes_bank20retrieve_commit_dataEv
                0x0800a9a0       0x4c bn_palettes_manager.o
                0x0800a9a0                bn::palettes_bank::retrieve_commit_data() const
 .text._ZNK2bn13palettes_bank21_apply_global_effectsEiPNS_5colorE
                0x0800a9ec      0x13c bn_palettes_manager.o
                0x0800a9ec                bn::palettes_bank::_apply_global_effects(int, bn::color*) const
 .text._ZNK2bn13palettes_bank25fill_hblank_effect_colorsEPKNS_5colorEPt
                0x0800ab28       0x30 bn_palettes_manager.o
                0x0800ab28                bn::palettes_bank::fill_hblank_effect_colors(bn::color const*, unsigned short*) const
 .text._ZNK2bn13palettes_bank7palette13apply_effectsEiPNS_5colorE
                0x0800ab58       0xbc bn_palettes_manager.o
                0x0800ab58                bn::palettes_bank::palette::apply_effects(int, bn::color*) const
 .text._ZNK2bn13palettes_bank25fill_hblank_effect_colorsEiPKNS_5colorEPt
                0x0800ac14       0x44 bn_palettes_manager.o
                0x0800ac14                bn::palettes_bank::fill_hblank_effect_colors(int, bn::color const*, unsigned short*) const
 .text._ZN2bn13palettes_bank15_update_paletteEi
                0x0800ac58       0x7c bn_palettes_manager.o
                0x0800ac58                bn::palettes_bank::_update_palette(int)
 .text._ZN2bn13palettes_bank6updateEv
                0x0800acd4      0x134 bn_palettes_manager.o
                0x0800acd4                bn::palettes_bank::update()
 .text._ZN2bn13palettes_bankC2Ev
                0x0800ae08       0xd4 bn_palettes_manager.o
                0x0800ae08                bn::palettes_bank::palettes_bank()
                0x0800ae08                bn::palettes_bank::palettes_bank()
 .text._ZN2bn16palettes_manager4initERKNS_8optionalINS_5colorEEE
                0x0800aedc      0x184 bn_palettes_manager.o
                0x0800aedc                bn::palettes_manager::init(bn::optional<bn::color> const&)
 .text._ZN2bn16palettes_manager20sprite_palettes_bankEv
                0x0800b060        0x8 bn_palettes_manager.o
                0x0800b060                bn::palettes_manager::sprite_palettes_bank()
 .text._ZN2bn16palettes_manager16bg_palettes_bankEv
                0x0800b068        0x8 bn_palettes_manager.o
                0x0800b068                bn::palettes_manager::bg_palettes_bank()
 .text._ZN2bn16palettes_manager6updateEv
                0x0800b070       0x20 bn_palettes_manager.o
                0x0800b070                bn::palettes_manager::update()
 .text._ZN2bn16palettes_manager6commitEb
                0x0800b090      0x104 bn_palettes_manager.o
                0x0800b090                bn::palettes_manager::commit(bool)
 .text._ZN2bn16palettes_manager4stopEv
                0x0800b194       0x20 bn_palettes_manager.o
                0x0800b194                bn::palettes_manager::stop()
 .text._ZN3_bn6assert9show_argsIA35_cEEvPKcS4_S4_iRKT_
                0x0800b1b4       0x48 bn_palettes_manager.o
                0x0800b1b4                void _bn::assert::show_args<char [35]>(char const*, char const*, char const*, int, char const (&) [35])
 .text._ZN2bn13palettes_bank11colors_hashERKNS_4spanIKNS_5colorEEE
                0x0800b1fc       0x48 bn_palettes_manager.o
                0x0800b1fc                bn::palettes_bank::colors_hash(bn::span<bn::color const> const&)
 .text._ZN3_bn6assert9show_argsIJA43_ciA36_cA42_cEEEvPKcS6_S6_iDpRKT_
                0x0800b244       0x64 bn_palettes_manager.o
                0x0800b244                void _bn::assert::show_args<char [43], int, char [36], char [42]>(char const*, char const*, char const*, int, char const (&) [43], int const&, char const (&) [36], char const (&) [42])
 .text._ZN2bn13palettes_bank12create_bpp_8ERKNS_4spanIKNS_5colorEEENS_16compression_typeEb
                0x0800b2a8      0x230 bn_palettes_manager.o
                0x0800b2a8                bn::palettes_bank::create_bpp_8(bn::span<bn::color const> const&, bn::compression_type, bool)
 .text._ZNK2bn19sprite_palette_item10decompressENS_4spanINS_5colorEEE
                0x0800b4d8      0x16c bn_palettes_manager.o
                0x0800b4d8                bn::sprite_palette_item::decompress(bn::span<bn::color>) const
 .text._ZNK2bn15bg_palette_item10decompressENS_4spanINS_5colorEEE
                0x0800b644      0x16c bn_palettes_manager.o
                0x0800b644                bn::bg_palette_item::decompress(bn::span<bn::color>) const
 .text._ZN2bn13palettes_bank12create_bpp_4ERKNS_4spanIKNS_5colorEEEtb
                0x0800b7b0      0x284 bn_palettes_manager.o
                0x0800b7b0                bn::palettes_bank::create_bpp_4(bn::span<bn::color const> const&, unsigned short, bool)
 .text._ZN2bn12_GLOBAL__N_112_create_implERKNS_15bg_palette_itemEb
                0x0800ba34       0x94 bn_palettes_manager.o
 .text._ZN2bn14bg_palette_ptr6createERKNS_15bg_palette_itemE
                0x0800bac8       0x54 bn_palettes_manager.o
                0x0800bac8                bn::bg_palette_ptr::create(bn::bg_palette_item const&)
 .text._ZNK2bn15bg_palette_item14create_paletteEv
                0x0800bb1c       0x10 bn_palettes_manager.o
                0x0800bb1c                bn::bg_palette_item::create_palette() const
 .text._ZN2bn12_GLOBAL__N_112_create_implERKNS_19sprite_palette_itemEb
                0x0800bb2c       0x7c bn_palettes_manager.o
 .text._ZNK2bn19sprite_palette_item14create_paletteEv
                0x0800bba8       0x48 bn_palettes_manager.o
                0x0800bba8                bn::sprite_palette_item::create_palette() const
 .text._ZN2bn14bg_palette_ptr10create_newERKNS_15bg_palette_itemE
                0x0800bbf0       0xd0 bn_palettes_manager.o
                0x0800bbf0                bn::bg_palette_ptr::create_new(bn::bg_palette_item const&)
 .text._ZNK2bn15bg_palette_item18create_new_paletteEv
                0x0800bcc0       0x10 bn_palettes_manager.o
                0x0800bcc0                bn::bg_palette_item::create_new_palette() const
 .text._ZN2bn14iunordered_mapItsNS_15identity_hasherENS_8equal_toItEEE5eraseERKNS4_14const_iteratorE.isra.0
                0x0800bcd0      0x1b4 bn_palettes_manager.o
 .text._ZN2bn13palettes_bank15decrease_usagesEi
                0x0800be84       0xd8 bn_palettes_manager.o
                0x0800be84                bn::palettes_bank::decrease_usages(int)
 .text._ZN2bn14bg_palette_ptraSERKS0_
                0x0800bf5c       0x4c bn_palettes_manager.o
                0x0800bf5c                bn::bg_palette_ptr::operator=(bn::bg_palette_ptr const&)
 .text._ZN2bn14bg_palette_ptrD2Ev
                0x0800bfa8       0x20 bn_palettes_manager.o
                0x0800bfa8                bn::bg_palette_ptr::~bg_palette_ptr()
                0x0800bfa8                bn::bg_palette_ptr::~bg_palette_ptr()
 .text._ZN2bn18sprite_palette_ptrD2Ev
                0x0800bfc8       0x20 bn_palettes_manager.o
                0x0800bfc8                bn::sprite_palette_ptr::~sprite_palette_ptr()
                0x0800bfc8                bn::sprite_palette_ptr::~sprite_palette_ptr()
 .text._ZN2bn14bg_palette_ptr4findERKNS_15bg_palette_itemE
                0x0800bfe8      0x11c bn_palettes_manager.o
                0x0800bfe8                bn::bg_palette_ptr::find(bn::bg_palette_item const&)
 .text._ZNK2bn15bg_palette_item12find_paletteEv
                0x0800c104       0x10 bn_palettes_manager.o
                0x0800c104                bn::bg_palette_item::find_palette() const
 .text.startup._GLOBAL__sub_I__ZN2bn11bg_palettes17used_colors_countEv
                0x0800c114       0x34 bn_palettes_manager.o
 .text._ZN2bn26sprite_affine_mats_manager12_GLOBAL__N_119_sprite_double_sizeILi32ELi16EEEbiiiii
                0x0800c148       0x84 bn_sprite_affine_mats_manager.o
 .text._ZN2bn26sprite_affine_mats_manager12_GLOBAL__N_119_sprite_double_sizeILi16ELi32EEEbiiiii
                0x0800c1cc       0x84 bn_sprite_affine_mats_manager.o
 .text._ZN2bn26sprite_affine_mats_manager12_GLOBAL__N_111static_dataD2Ev
                0x0800c250       0x3c bn_sprite_affine_mats_manager.o
 .text._ZNK2bn26sprite_affine_mats_manager12_GLOBAL__N_19item_type18sprite_double_sizeEiRKNS_17sprite_shape_sizeE.isra.0
                0x0800c28c      0x1ac bn_sprite_affine_mats_manager.o
 .text._ZNK2bn21sprite_affine_mat_ptr15horizontal_flipEv
                0x0800c438       0x18 bn_sprite_affine_mats_manager.o
                0x0800c438                bn::sprite_affine_mat_ptr::horizontal_flip() const
 .text._ZNK2bn21sprite_affine_mat_ptr13vertical_flipEv
                0x0800c450       0x18 bn_sprite_affine_mats_manager.o
                0x0800c450                bn::sprite_affine_mat_ptr::vertical_flip() const
 .text._ZNK2bn21sprite_affine_mat_ptr16flipped_identityEv
                0x0800c468       0x14 bn_sprite_affine_mats_manager.o
                0x0800c468                bn::sprite_affine_mat_ptr::flipped_identity() const
 .text._ZN2bn26sprite_affine_mats_manager13attach_spriteEiRNS_24intrusive_list_node_typeE
                0x0800c47c       0x2c bn_sprite_affine_mats_manager.o
                0x0800c47c                bn::sprite_affine_mats_manager::attach_sprite(int, bn::intrusive_list_node_type&)
 .text._ZN2bn26sprite_affine_mats_manager18sprite_double_sizeEiRKNS_17sprite_shape_sizeE
                0x0800c4a8       0x4c bn_sprite_affine_mats_manager.o
                0x0800c4a8                bn::sprite_affine_mats_manager::sprite_double_size(int, bn::sprite_shape_size const&)
 .text._ZN2bn26sprite_affine_mats_manager20retrieve_commit_dataEv
                0x0800c4f4       0x38 bn_sprite_affine_mats_manager.o
                0x0800c4f4                bn::sprite_affine_mats_manager::retrieve_commit_data()
 .text._ZN3_bn6assert9show_argsIA37_cEEvPKcS4_S4_iRKT_
                0x0800c52c       0x48 bn_sprite_affine_mats_manager.o
                0x0800c52c                void _bn::assert::show_args<char [37]>(char const*, char const*, char const*, int, char const (&) [37])
 .text._ZN2bn26sprite_affine_mats_manager15decrease_usagesEi.part.0
                0x0800c574       0x70 bn_sprite_affine_mats_manager.o
 .text._ZN2bn21sprite_affine_mat_ptrD2Ev
                0x0800c5e4       0x34 bn_sprite_affine_mats_manager.o
                0x0800c5e4                bn::sprite_affine_mat_ptr::~sprite_affine_mat_ptr()
                0x0800c5e4                bn::sprite_affine_mat_ptr::~sprite_affine_mat_ptr()
 .text._ZN2bn26sprite_affine_mats_manager6updateEv
                0x0800c618      0x2d0 bn_sprite_affine_mats_manager.o
                0x0800c618                bn::sprite_affine_mats_manager::update()
 .text._ZN2bn26sprite_affine_mats_manager4initEPv
                0x0800c8e8      0x108 bn_sprite_affine_mats_manager.o
                0x0800c8e8                bn::sprite_affine_mats_manager::init(void*)
 .text._ZN2bn26sprite_affine_mats_manager14dettach_spriteEiRNS_24intrusive_list_node_typeE
                0x0800c9f0       0x50 bn_sprite_affine_mats_manager.o
                0x0800c9f0                bn::sprite_affine_mats_manager::dettach_sprite(int, bn::intrusive_list_node_type&)
 .text.startup._GLOBAL__sub_I__ZN2bn18sprite_affine_mats10used_countEv
                0x0800ca40       0xb4 bn_sprite_affine_mats_manager.o
 .text._ZN2bn21sprite_text_generator5_initEv
                0x0800caf4      0x180 bn_sprite_text_generator.o
                0x0800caf4                bn::sprite_text_generator::_init()
 .text._ZN2bn21sprite_text_generatorC2ERKNS_11sprite_fontE
                0x0800cc74       0x2c bn_sprite_text_generator.o
                0x0800cc74                bn::sprite_text_generator::sprite_text_generator(bn::sprite_font const&)
                0x0800cc74                bn::sprite_text_generator::sprite_text_generator(bn::sprite_font const&)
 .text._ZN3_bn6assert9show_argsIA54_cEEvPKcS4_S4_iRKT_
                0x0800cca0       0x48 bn_sprite_text_generator.o
                0x0800cca0                void _bn::assert::show_args<char [54]>(char const*, char const*, char const*, int, char const (&) [54])
 .text._ZN3_bn6assert9show_argsIJA25_ciA4_ctEEEvPKcS5_S5_iDpRKT_
                0x0800cce8       0x64 bn_sprite_text_generator.o
                0x0800cce8                void _bn::assert::show_args<char [25], int, char [4], unsigned short>(char const*, char const*, char const*, int, char const (&) [25], int const&, char const (&) [4], unsigned short const&)
 .text._ZN2bn14utf8_characterC2ERKc
                0x0800cd4c      0x140 bn_sprite_text_generator.o
                0x0800cd4c                bn::utf8_character::utf8_character(char const&)
                0x0800cd4c                bn::utf8_character::utf8_character(char const&)
 .text._ZN2bn12_GLOBAL__N_115_graphics_indexEcRKNS_23utf8_characters_map_refEPKcRi.part.0
                0x0800ce8c       0x8c bn_sprite_text_generator.o
 .text._ZN3_bn6assert9show_argsIJA20_ccA9_cN2bn11string_viewEA2_cEEEvPKcS8_S8_iDpRKT_
                0x0800cf18       0x6c bn_sprite_text_generator.o
                0x0800cf18                void _bn::assert::show_args<char [20], char, char [9], bn::string_view, char [2]>(char const*, char const*, char const*, int, char const (&) [20], char const&, char const (&) [9], bn::string_view const&, char const (&) [2])
 .text._ZNK2bn21sprite_text_generator5widthERKNS_11string_viewE
                0x0800cf84      0x244 bn_sprite_text_generator.o
                0x0800cf84                bn::sprite_text_generator::width(bn::string_view const&) const
 .text._ZN3_bn6assert9show_argsIA55_cEEvPKcS4_S4_iRKT_
                0x0800d1c8       0x48 bn_sprite_text_generator.o
                0x0800d1c8                void _bn::assert::show_args<char [55]>(char const*, char const*, char const*, int, char const (&) [55])
 .text._ZN2bn12_GLOBAL__N_120_build_sprite_assertILNS_11sprite_sizeE2EEEPNS_4tileERKNS_21sprite_text_generatorERKNS_18sprite_palette_ptrERKNS_13fixed_point_tILi12EEERNS_7ivectorINS_10sprite_ptrEEE
                0x0800d210      0x1bc bn_sprite_text_generator.o
 .text._ZN2bn12_GLOBAL__N_120_build_sprite_assertILNS_11sprite_sizeE1EEEPNS_4tileERKNS_21sprite_text_generatorERKNS_18sprite_palette_ptrERKNS_13fixed_point_tILi12EEERNS_7ivectorINS_10sprite_ptrEEE
                0x0800d3cc      0x1bc bn_sprite_text_generator.o
 .text._ZN2bn12_GLOBAL__N_19_generateILb0EEEbRKNS_21sprite_text_generatorERKNS_13fixed_point_tILi12EEERKNS_11string_viewERKNS_23utf8_characters_map_refEiibRNS_7ivectorINS_10sprite_ptrEEE.isra.0
                0x0800d588     0x11c0 bn_sprite_text_generator.o
 .text._ZNK2bn21sprite_text_generator8generateENS_7fixed_tILi12EEES2_RKNS_11string_viewERNS_7ivectorINS_10sprite_ptrEEE
                0x0800e748       0x40 bn_sprite_text_generator.o
                0x0800e748                bn::sprite_text_generator::generate(bn::fixed_t<12>, bn::fixed_t<12>, bn::string_view const&, bn::ivector<bn::sprite_ptr>&) const
 .text._ZNK2bn16sprite_tiles_ptr2idEv
                0x0800e788       0x18 bn_sprite_tiles_manager.o
                0x0800e788                bn::sprite_tiles_ptr::id() const
 .text._ZNK2bn16sprite_tiles_ptr11tiles_countEv
                0x0800e7a0       0x18 bn_sprite_tiles_manager.o
                0x0800e7a0                bn::sprite_tiles_ptr::tiles_count() const
 .text._ZN2bn20sprite_tiles_manager10log_statusEv
                0x0800e7b8      0x1ec bn_sprite_tiles_manager.o
                0x0800e7b8                bn::sprite_tiles_manager::log_status()
 .text._ZN2bn20sprite_tiles_manager19commit_uncompressedEb
                0x0800e9a4       0xdc bn_sprite_tiles_manager.o
                0x0800e9a4                bn::sprite_tiles_manager::commit_uncompressed(bool)
 .text._ZN3_bn6assert9show_argsIA27_chEEvPKcS4_S4_iRKT_RKT0_
                0x0800ea80       0x54 bn_sprite_tiles_manager.o
                0x0800ea80                void _bn::assert::show_args<char [27], unsigned char>(char const*, char const*, char const*, int, char const (&) [27], unsigned char const&)
 .text._ZN3_bn6assert9show_argsIJA44_cPKN2bn4tileEA4_cS6_EEEvPKcS9_S9_iDpRKT_
                0x0800ead4       0x64 bn_sprite_tiles_manager.o
                0x0800ead4                void _bn::assert::show_args<char [44], bn::tile const*, char [4], bn::tile const*>(char const*, char const*, char const*, int, char const (&) [44], bn::tile const* const&, char const (&) [4], bn::tile const* const&)
 .text._ZN3_bn6assert9show_argsIJA46_ciA4_cjEEEvPKcS5_S5_iDpRKT_
                0x0800eb38       0x64 bn_sprite_tiles_manager.o
                0x0800eb38                void _bn::assert::show_args<char [46], int, char [4], unsigned int>(char const*, char const*, char const*, int, char const (&) [46], int const&, char const (&) [4], unsigned int const&)
 .text._ZN2bn20sprite_tiles_manager12_GLOBAL__N_110_hw_commitEPKNS_4tileENS_16compression_typeEii
                0x0800eb9c       0x9c bn_sprite_tiles_manager.o
 .text._ZN2bn20sprite_tiles_manager17commit_compressedEv
                0x0800ec38       0x68 bn_sprite_tiles_manager.o
                0x0800ec38                bn::sprite_tiles_manager::commit_compressed()
 .text._ZN3_bn6assert9show_argsIJA28_cA15_cPKN2bn4tileEA16_ciA34_cNS4_11string_viewEEEEvPKcSC_SC_iDpRKT_
                0x0800eca0       0x7c bn_sprite_tiles_manager.o
                0x0800eca0                void _bn::assert::show_args<char [28], char [15], bn::tile const*, char [16], int, char [34], bn::string_view>(char const*, char const*, char const*, int, char const (&) [28], char const (&) [15], bn::tile const* const&, char const (&) [16], int const&, char const (&) [34], bn::string_view const&)
 .text._ZN3_bn6assert9show_argsIJA44_ciA34_cN2bn11string_viewEEEEvPKcS7_S7_iDpRKT_
                0x0800ed1c       0x64 bn_sprite_tiles_manager.o
                0x0800ed1c                void _bn::assert::show_args<char [44], int, char [34], bn::string_view>(char const*, char const*, char const*, int, char const (&) [44], int const&, char const (&) [34], bn::string_view const&)
 .text._ZN2bn20sprite_tiles_manager4initEv
                0x0800ed80      0x190 bn_sprite_tiles_manager.o
                0x0800ed80                bn::sprite_tiles_manager::init()
 .text._ZN2bn20sprite_tiles_manager12_GLOBAL__N_122_insert_to_commit_itemEiRNS1_9item_typeE.part.0
                0x0800ef10       0x6c bn_sprite_tiles_manager.o
 .text._ZN2bn20sprite_tiles_manager12_GLOBAL__N_117_insert_free_itemEiPt
                0x0800ef7c       0xcc bn_sprite_tiles_manager.o
 .text._ZN2bn20sprite_tiles_manager12_GLOBAL__N_116_erase_free_itemEi
                0x0800f048       0xe4 bn_sprite_tiles_manager.o
 .text._ZN2bn20sprite_tiles_manager12_GLOBAL__N_121_erase_to_commit_itemEiRNS1_9item_typeE
                0x0800f12c      0x100 bn_sprite_tiles_manager.o
 .text._ZN2bn20sprite_tiles_manager15decrease_usagesEi
                0x0800f22c      0x134 bn_sprite_tiles_manager.o
                0x0800f22c                bn::sprite_tiles_manager::decrease_usages(int)
 .text._ZN2bn16sprite_tiles_ptrD2Ev
                0x0800f360       0x18 bn_sprite_tiles_manager.o
                0x0800f360                bn::sprite_tiles_ptr::~sprite_tiles_ptr()
                0x0800f360                bn::sprite_tiles_ptr::~sprite_tiles_ptr()
 .text._ZN2bn20sprite_tiles_manager12_GLOBAL__N_110_find_implEPKNS_4tileENS_16compression_typeEi
                0x0800f378      0x28c bn_sprite_tiles_manager.o
 .text._ZN2bn20sprite_tiles_manager4vramEi
                0x0800f604       0x4c bn_sprite_tiles_manager.o
                0x0800f604                bn::sprite_tiles_manager::vram(int)
 .text._ZN2bn16sprite_tiles_ptr4vramEv
                0x0800f650       0x14 bn_sprite_tiles_manager.o
                0x0800f650                bn::sprite_tiles_ptr::vram()
 .text._ZN2bn14iunordered_mapIPKNS_4tileEiNS_4hashIS3_EENS_8equal_toIS3_EEE5eraseERKNS8_14const_iteratorE.isra.0
                0x0800f664      0x1b4 bn_sprite_tiles_manager.o
 .text._ZN2bn20sprite_tiles_manager12_GLOBAL__N_112_create_itemEiPKNS_4tileENS_16compression_typeEib
                0x0800f818      0x268 bn_sprite_tiles_manager.o
 .text._ZN2bn20sprite_tiles_manager12_GLOBAL__N_114_allocate_implEi
                0x0800fa80       0xf8 bn_sprite_tiles_manager.o
 .text._ZN2bn20sprite_tiles_manager8allocateEiNS_8bpp_modeE
                0x0800fb78       0xc4 bn_sprite_tiles_manager.o
                0x0800fb78                bn::sprite_tiles_manager::allocate(int, bn::bpp_mode)
 .text._ZN2bn16sprite_tiles_ptr8allocateEiNS_8bpp_modeE
                0x0800fc3c       0x18 bn_sprite_tiles_manager.o
                0x0800fc3c                bn::sprite_tiles_ptr::allocate(int, bn::bpp_mode)
 .text._ZN2bn20sprite_tiles_manager6updateEv
                0x0800fc54      0x238 bn_sprite_tiles_manager.o
                0x0800fc54                bn::sprite_tiles_manager::update()
 .text._ZN2bn20sprite_tiles_manager12_GLOBAL__N_112_create_implEPKNS_4tileENS_16compression_typeEi
                0x0800fe8c      0x200 bn_sprite_tiles_manager.o
 .text._ZN2bn20sprite_tiles_manager6createERKNS_4spanIKNS_4tileEEENS_16compression_typeE
                0x0801008c      0x140 bn_sprite_tiles_manager.o
                0x0801008c                bn::sprite_tiles_manager::create(bn::span<bn::tile const> const&, bn::compression_type)
 .text._ZN2bn16sprite_tiles_ptr6createERKNS_17sprite_tiles_itemEi
                0x080101cc       0xbc bn_sprite_tiles_manager.o
                0x080101cc                bn::sprite_tiles_ptr::create(bn::sprite_tiles_item const&, int)
 .text._ZNK2bn17sprite_tiles_item12create_tilesEi
                0x08010288       0xbc bn_sprite_tiles_manager.o
                0x08010288                bn::sprite_tiles_item::create_tiles(int) const
 .text.startup._GLOBAL__sub_I__ZN2bn12sprite_tiles16used_tiles_countEv
                0x08010344      0x12c bn_sprite_tiles_manager.o
 .text._ZN2bn15sprites_manager12_GLOBAL__N_132_always_update_indexes_to_commitERKNS_20sprites_manager_itemE
                0x08010470       0x48 bn_sprites_manager.o
 .text._ZN2bn15sprites_manager12_GLOBAL__N_111static_dataD2Ev
                0x080104b8       0x44 bn_sprites_manager.o
 .text._ZN2bn13ostringstream11append_argsIiJA4_ciEEEvRKT_DpRKT0_.isra.0
                0x080104fc       0x24 bn_sprites_manager.o
 .text._ZN2bn15sprites_manager12_GLOBAL__N_123_update_item_dimensionsERNS_20sprites_manager_itemE
                0x08010520       0xc8 bn_sprites_manager.o
 .text._ZN2bn15sprites_manager4initEv
                0x080105e8       0xd0 bn_sprites_manager.o
                0x080105e8                bn::sprites_manager::init()
 .text._ZN2bn15sprites_manager5hw_idEPv
                0x080106b8        0x8 bn_sprites_manager.o
                0x080106b8                bn::sprites_manager::hw_id(void*)
 .text._ZN2bn15sprites_manager5shapeEPv
                0x080106c0        0x8 bn_sprites_manager.o
                0x080106c0                bn::sprites_manager::shape(void*)
 .text._ZN2bn15sprites_manager4sizeEPv
                0x080106c8        0x8 bn_sprites_manager.o
                0x080106c8                bn::sprites_manager::size(void*)
 .text._ZN2bn15sprites_manager10shape_sizeEPv
                0x080106d0       0x14 bn_sprites_manager.o
                0x080106d0                bn::sprites_manager::shape_size(void*)
 .text._ZN2bn15sprites_manager11hw_positionEPv
                0x080106e4        0x4 bn_sprites_manager.o
                0x080106e4                bn::sprites_manager::hw_position(void*)
 .text._ZN2bn15sprites_manager9view_modeEPv
                0x080106e8        0xc bn_sprites_manager.o
                0x080106e8                bn::sprites_manager::view_mode(void*)
 .text._ZN2bn15sprites_manager10affine_matEPv
                0x080106f4        0x4 bn_sprites_manager.o
                0x080106f4                bn::sprites_manager::affine_mat(void*)
 .text._ZN2bn15sprites_manager39fill_hblank_effect_horizontal_positionsEPviPKNS_7fixed_tILi12EEEPt
                0x080106f8       0x44 bn_sprites_manager.o
                0x080106f8                bn::sprites_manager::fill_hblank_effect_horizontal_positions(void*, int, bn::fixed_t<12> const*, unsigned short*)
 .text._ZN2bn15sprites_manager37fill_hblank_effect_vertical_positionsEPviPKNS_7fixed_tILi12EEEPt
                0x0801073c       0x44 bn_sprites_manager.o
                0x0801073c                bn::sprites_manager::fill_hblank_effect_vertical_positions(void*, int, bn::fixed_t<12> const*, unsigned short*)
 .text._ZN2bn15sprites_manager35fill_hblank_effect_first_attributesEiNS_12sprite_shapeENS_8bpp_modeEiPKNS_23sprite_first_attributesEPt
                0x08010780       0xdc bn_sprites_manager.o
                0x08010780                bn::sprites_manager::fill_hblank_effect_first_attributes(int, bn::sprite_shape, bn::bpp_mode, int, bn::sprite_first_attributes const*, unsigned short*)
 .text._ZN2bn15sprites_manager44fill_hblank_effect_regular_second_attributesEPviNS_11sprite_sizeEPKNS_32sprite_regular_second_attributesEPt
                0x0801085c       0x60 bn_sprites_manager.o
                0x0801085c                bn::sprites_manager::fill_hblank_effect_regular_second_attributes(void*, int, bn::sprite_size, bn::sprite_regular_second_attributes const*, unsigned short*)
 .text._ZN2bn15sprites_manager43fill_hblank_effect_affine_second_attributesEPviNS_11sprite_sizeEPKNS_31sprite_affine_second_attributesEPt
                0x080108bc       0x58 bn_sprites_manager.o
                0x080108bc                bn::sprites_manager::fill_hblank_effect_affine_second_attributes(void*, int, bn::sprite_size, bn::sprite_affine_second_attributes const*, unsigned short*)
 .text._ZN2bn15sprites_manager14update_camerasEv
                0x08010914       0x20 bn_sprites_manager.o
                0x08010914                bn::sprites_manager::update_cameras()
 .text._ZN2bn15sprites_manager23update_auto_double_sizeEPv
                0x08010934       0x2c bn_sprites_manager.o
                0x08010934                bn::sprites_manager::update_auto_double_size(void*)
 .text._ZN2bn15sprites_manager6commitEb
                0x08010960       0xa4 bn_sprites_manager.o
                0x08010960                bn::sprites_manager::commit(bool)
 .text._ZNK2bn17sprite_shape_size11tiles_countENS_8bpp_modeE.isra.0
                0x08010a04      0x150 bn_sprites_manager.o
 .text._ZN2bn15sprites_manager12_GLOBAL__N_118_remove_affine_matERNS_20sprites_manager_itemE
                0x08010b54       0xe4 bn_sprites_manager.o
 .text._ZN2bn15sprites_manager42remove_identity_affine_mat_when_not_neededEPv
                0x08010c38        0xc bn_sprites_manager.o
                0x08010c38                bn::sprites_manager::remove_identity_affine_mat_when_not_needed(void*)
 .text._ZN2bn14sprite_builder15release_paletteEv
                0x08010c44       0x78 bn_sprites_manager.o
                0x08010c44                bn::sprite_builder::release_palette()
 .text._ZN2bn14sprite_builder13release_tilesEv
                0x08010cbc       0x78 bn_sprites_manager.o
                0x08010cbc                bn::sprite_builder::release_tiles()
 .text._ZN2bn15sprites_manager7paletteEPv
                0x08010d34       0x34 bn_sprites_manager.o
                0x08010d34                bn::sprites_manager::palette(void*)
 .text._ZN2bn20sprites_manager_item13_builder_initERKNS_14sprite_builderE
                0x08010d68      0x350 bn_sprites_manager.o
                0x08010d68                bn::sprites_manager_item::_builder_init(bn::sprite_builder const&)
 .text._ZN2bn14sprite_builder11set_z_orderEi
                0x080110b8       0x48 bn_sprites_manager.o
                0x080110b8                bn::sprite_builder::set_z_order(int)
 .text._ZN2bn14sprite_builderC2ERKNS_17sprite_shape_sizeENS_16sprite_tiles_ptrENS_18sprite_palette_ptrE
                0x08011100      0x120 bn_sprites_manager.o
                0x08011100                bn::sprite_builder::sprite_builder(bn::sprite_shape_size const&, bn::sprite_tiles_ptr, bn::sprite_palette_ptr)
                0x08011100                bn::sprite_builder::sprite_builder(bn::sprite_shape_size const&, bn::sprite_tiles_ptr, bn::sprite_palette_ptr)
 .text._ZN2bn14sprite_builder15set_bg_priorityEi
                0x08011220       0x38 bn_sprites_manager.o
                0x08011220                bn::sprite_builder::set_bg_priority(int)
 .text._ZN2bn15sprites_manager6updateEv
                0x08011258      0x158 bn_sprites_manager.o
                0x08011258                bn::sprites_manager::update()
 .text._ZN3_bn6assert9show_argsIJA27_ciA4_ciEEEvPKcS5_S5_iDpRKT_
                0x080113b0       0x58 bn_sprites_manager.o
                0x080113b0                void _bn::assert::show_args<char [27], int, char [4], int>(char const*, char const*, char const*, int, char const (&) [27], int const&, char const (&) [4], int const&)
 .text._ZN2bn15sprites_manager35fill_hblank_effect_third_attributesENS_17sprite_shape_sizeEPKNS_23sprite_third_attributesEPt
                0x08011408       0xc4 bn_sprites_manager.o
                0x08011408                bn::sprites_manager::fill_hblank_effect_third_attributes(bn::sprite_shape_size, bn::sprite_third_attributes const*, unsigned short*)
 .text._ZN2bn14sorted_sprites6sorter6insertERNS_20sprites_manager_itemE
                0x080114cc      0x170 bn_sprites_manager.o
                0x080114cc                bn::sorted_sprites::sorter::insert(bn::sprites_manager_item&)
 .text._ZN2bn15sprites_manager6createEONS_14sprite_builderE
                0x0801163c      0x180 bn_sprites_manager.o
                0x0801163c                bn::sprites_manager::create(bn::sprite_builder&&)
 .text._ZN2bn10sprite_ptr6createEONS_14sprite_builderE
                0x080117bc       0x14 bn_sprites_manager.o
                0x080117bc                bn::sprite_ptr::create(bn::sprite_builder&&)
 .text._ZN2bn15sprites_manager15decrease_usagesEPv
                0x080117d0      0x180 bn_sprites_manager.o
                0x080117d0                bn::sprites_manager::decrease_usages(void*)
 .text._ZN2bn10sprite_ptrD2Ev
                0x08011950       0x18 bn_sprites_manager.o
                0x08011950                bn::sprite_ptr::~sprite_ptr()
                0x08011950                bn::sprite_ptr::~sprite_ptr()
 .text.startup._GLOBAL__sub_I__ZN2bn7sprites16used_items_countEv
                0x08011968       0xac bn_sprites_manager.o
 .text._ZN2bn13ostringstreamC2ERNS_12istring_baseE
                0x08011a14        0x8 bn_sstream.o
                0x08011a14                bn::ostringstream::ostringstream(bn::istring_base&)
                0x08011a14                bn::ostringstream::ostringstream(bn::istring_base&)
 .text._ZNK2bn13ostringstream4sizeEv
                0x08011a1c        0x8 bn_sstream.o
                0x08011a1c                bn::ostringstream::size() const
 .text._ZN2bn13ostringstream6appendEPKc
                0x08011a24       0x94 bn_sstream.o
                0x08011a24                bn::ostringstream::append(char const*)
 .text._ZN2bn13ostringstream6appendEi
                0x08011ab8       0xb0 bn_sstream.o
                0x08011ab8                bn::ostringstream::append(int)
 .text._ZN2bn13ostringstream6appendERKNS_11string_viewE
                0x08011b68       0x9c bn_sstream.o
                0x08011b68                bn::ostringstream::append(bn::string_view const&)
 .text._ZN2bn13ostringstream6appendEj
                0x08011c04       0xb0 bn_sstream.o
                0x08011c04                bn::ostringstream::append(unsigned int)
 .text._ZN2bn13ostringstream6appendEPKv
                0x08011cb4      0x100 bn_sstream.o
                0x08011cb4                bn::ostringstream::append(void const*)
 .text._ZN2bn13ostringstream16_append_fractionEji
                0x08011db4      0x114 bn_sstream.o
                0x08011db4                bn::ostringstream::_append_fraction(unsigned int, int)
 .text._ZN2bn13ostringstream6appendEc
                0x08011ec8       0x44 bn_sstream.o
                0x08011ec8                bn::ostringstream::append(char)
 .text._ZN2bn18igeneric_pool_baseC2EPci
                0x08011f0c       0x10 bn_translation_unit.o
                0x08011f0c                bn::igeneric_pool_base::igeneric_pool_base(char*, int)
                0x08011f0c                bn::igeneric_pool_base::igeneric_pool_base(char*, int)
 .text._ZN2bn18igeneric_pool_base5_freeEPc
                0x08011f1c       0x10 bn_translation_unit.o
                0x08011f1c                bn::igeneric_pool_base::_free(char*)
 .text._ZN2bn5timerC2Ev
                0x08011f2c       0x24 bn_translation_unit.o
                0x08011f2c                bn::timer::timer()
                0x08011f2c                bn::timer::timer()
 .text._ZNK2bn5timer13elapsed_ticksEv
                0x08011f50       0x3c bn_translation_unit.o
                0x08011f50                bn::timer::elapsed_ticks() const
 .text._ZN2bn5timer7restartEv
                0x08011f8c       0x24 bn_translation_unit.o
                0x08011f8c                bn::timer::restart()
 .text._ZN2bn3logERKNS_12istring_baseE
                0x08011fb0       0x58 bn_translation_unit.o
                0x08011fb0                bn::log(bn::istring_base const&)
 .text._ZN2bn18igeneric_pool_baseD2Ev
                0x08012008       0x30 bn_translation_unit.o
                0x08012008                bn::igeneric_pool_base::~igeneric_pool_base()
                0x08012008                bn::igeneric_pool_base::~igeneric_pool_base()
 .text._ZN2bn18igeneric_pool_base9_allocateEv
                0x08012038       0x48 bn_translation_unit.o
                0x08012038                bn::igeneric_pool_base::_allocate()
 .text._ZN2bn2hw5audio12_GLOBAL__N_111static_dataD2Ev
                0x08012080       0x18 bn_hw_audio.o
 .text._ZN2bn2hw5audio12_GLOBAL__N_17_commitEv
                0x08012098       0x48 bn_hw_audio.o
 .text._ZN2bn2hw5audio12_GLOBAL__N_115_vblank_handlerEv
                0x080120e0       0x24 bn_hw_audio.o
 .text._ZN2bn2hw5audio4initEv
                0x08012104       0x9c bn_hw_audio.o
                0x08012104                bn::hw::audio::init()
 .text._ZN2bn2hw5audio7disableEv
                0x080121a0       0x34 bn_hw_audio.o
                0x080121a0                bn::hw::audio::disable()
 .text._ZN2bn2hw5audio13music_playingEv
                0x080121d4       0x20 bn_hw_audio.o
                0x080121d4                bn::hw::audio::music_playing()
 .text._ZN2bn2hw5audio10play_musicEib
                0x080121f4       0x1c bn_hw_audio.o
                0x080121f4                bn::hw::audio::play_music(int, bool)
 .text._ZN2bn2hw5audio10stop_musicEv
                0x08012210       0x18 bn_hw_audio.o
                0x08012210                bn::hw::audio::stop_music()
 .text._ZN2bn2hw5audio11pause_musicEv
                0x08012228       0x18 bn_hw_audio.o
                0x08012228                bn::hw::audio::pause_music()
 .text._ZN2bn2hw5audio12resume_musicEv
                0x08012240       0x18 bn_hw_audio.o
                0x08012240                bn::hw::audio::resume_music()
 .text._ZN2bn2hw5audio17dmg_music_playingEv
                0x08012258       0x2c bn_hw_audio.o
                0x08012258                bn::hw::audio::dmg_music_playing()
 .text._ZN2bn2hw5audio14stop_dmg_musicEv
                0x08012284       0x28 bn_hw_audio.o
                0x08012284                bn::hw::audio::stop_dmg_music()
 .text._ZN2bn2hw5audio15pause_dmg_musicEv
                0x080122ac       0x28 bn_hw_audio.o
                0x080122ac                bn::hw::audio::pause_dmg_music()
 .text._ZN2bn2hw5audio16resume_dmg_musicEv
                0x080122d4       0x28 bn_hw_audio.o
                0x080122d4                bn::hw::audio::resume_dmg_music()
 .text._ZN2bn2hw5audio18dmg_music_positionERiS2_
                0x080122fc       0x2c bn_hw_audio.o
                0x080122fc                bn::hw::audio::dmg_music_position(int&, int&)
 .text._ZN2bn2hw5audio6updateEv
                0x08012328       0x14 bn_hw_audio.o
                0x08012328                bn::hw::audio::update()
 .text._ZN3_bn6assert9show_argsIA47_ciEEvPKcS4_S4_iRKT_RKT0_
                0x0801233c       0x54 bn_hw_audio.o
                0x0801233c                void _bn::assert::show_args<char [47], int>(char const*, char const*, char const*, int, char const (&) [47], int const&)
 .text._ZN2bn2hw5audio14play_dmg_musicEPKvNS_14dmg_music_typeEib
                0x08012390       0x8c bn_hw_audio.o
                0x08012390                bn::hw::audio::play_dmg_music(void const*, bn::dmg_music_type, int, bool)
 .text._ZN2bn2hw5audio22set_dmg_music_positionEii
                0x0801241c       0x54 bn_hw_audio.o
                0x0801241c                bn::hw::audio::set_dmg_music_position(int, int)
 .text._ZN2bn2hw5audio20set_dmg_music_volumeEii
                0x08012470       0x40 bn_hw_audio.o
                0x08012470                bn::hw::audio::set_dmg_music_volume(int, int)
 .text._ZN3_bn6assert9show_argsIA20_cjEEvPKcS4_S4_iRKT_RKT0_
                0x080124b0       0x54 bn_hw_audio.o
                0x080124b0                void _bn::assert::show_args<char [20], unsigned int>(char const*, char const*, char const*, int, char const (&) [20], unsigned int const&)
 .text._ZN2bn2hw5audio6commitEv
                0x08012504       0x58 bn_hw_audio.o
                0x08012504                bn::hw::audio::commit()
 .text._ZN2bn2hw5audio12_GLOBAL__N_119_add_sound_to_queueEit
                0x0801255c       0xa0 bn_hw_audio.o
 .text._ZN2bn2hw5audio12_GLOBAL__N_123_erase_sound_from_queueEt
                0x080125fc       0x90 bn_hw_audio.o
 .text._ZN2bn2hw5audio10stop_soundEt
                0x0801268c       0x20 bn_hw_audio.o
                0x0801268c                bn::hw::audio::stop_sound(unsigned short)
 .text._ZN2bn2hw5audio13release_soundEt
                0x080126ac       0x20 bn_hw_audio.o
                0x080126ac                bn::hw::audio::release_sound(unsigned short)
 .text._ZN2bn2hw5audio15stop_all_soundsEv
                0x080126cc       0x68 bn_hw_audio.o
                0x080126cc                bn::hw::audio::stop_all_sounds()
 .text._ZN2bn2hw5audio12_GLOBAL__N_119_check_sounds_queueEv.part.0
                0x08012734       0x98 bn_hw_audio.o
 .text._ZN2bn2hw5audio10play_soundEiiiii
                0x080127cc       0x48 bn_hw_audio.o
                0x080127cc                bn::hw::audio::play_sound(int, int, int, int, int)
 .text._ZN2bn2hw5audio10play_soundEii
                0x08012814       0x34 bn_hw_audio.o
                0x08012814                bn::hw::audio::play_sound(int, int)
 .text._ZN2bn2hw5audio19update_sounds_queueEv
                0x08012848       0x90 bn_hw_audio.o
                0x08012848                bn::hw::audio::update_sounds_queue()
 .text.startup._GLOBAL__sub_I__ZN2bn2hw5audio4initEv
                0x080128d8       0x40 bn_hw_audio.o
 .text.__libc_init_array
                0x08012918       0x50 bn_hw_common.bn_noflto.o
                0x08012918                __libc_init_array
 .text.__aeabi_atexit
                0x08012968        0x4 bn_hw_common.bn_noflto.o
                0x08012968                __aeabi_atexit
 .text._ZN3_bn6assert9show_argsIA40_cEEvPKcS4_S4_iRKT_
                0x0801296c       0x48 bn_hw_common.bn_noflto.o
                0x0801296c                void _bn::assert::show_args<char [40]>(char const*, char const*, char const*, int, char const (&) [40])
 .text.__aeabi_idiv0
                0x080129b4       0x24 bn_hw_common.bn_noflto.o
                0x080129b4                __aeabi_idiv0
 .text._ZN2bn2hw4link12_GLOBAL__N_119_resetStateCallbackEv
                0x080129d8       0x4c bn_hw_link.o
 .text._ZN2bn2hw4link4initEv
                0x08012a24      0x120 bn_hw_link.o
                0x08012a24                bn::hw::link::init()
 .text._ZN2bn2hw4link6activeEv
                0x08012b44       0x10 bn_hw_link.o
                0x08012b44                bn::hw::link::active()
 .text._ZN2bn2hw4link7disableEv
                0x08012b54       0x6c bn_hw_link.o
                0x08012b54                bn::hw::link::disable()
 .text._ZN2bn2hw4link6commitEv
                0x08012bc0       0x30 bn_hw_link.o
                0x08012bc0                bn::hw::link::commit()
 .text._ZN2bn2hw4link11_timer_intrEv
                0x08012bf0       0xf8 bn_hw_link.o
                0x08012bf0                bn::hw::link::_timer_intr()
 .text._ZN2bn2hw4link12_serial_intrEv
                0x08012ce8      0x1bc bn_hw_link.o
                0x08012ce8                bn::hw::link::_serial_intr()
 .text._ZN2bn2hw4link12_GLOBAL__N_117_sendDataCallbackEv
                0x08012ea4       0xe4 bn_hw_link.o
 .text._ZN2bn2hw4link12_GLOBAL__N_124_receiveResponseCallbackERKNS_2lc12LinkResponseE
                0x08012f88      0x15c bn_hw_link.o
 .text.startup._GLOBAL__sub_I__ZN2bn2hw4link4initEv
                0x080130e4       0x68 bn_hw_link.o
 .text._ZN2bn2hw6memory4initEv
                0x0801314c        0x4 bn_hw_memory.o
                0x0801314c                bn::hw::memory::init()
 .text._ZN2bn2hw8palettes8contrastEPKNS_5colorEiiPS2_
                0x08013150       0x18 bn_hw_palettes.o
                0x08013150                bn::hw::palettes::contrast(bn::color const*, int, int, bn::color*)
 .text._ZN2bn2hw8palettes9intensityEPKNS_5colorEiiPS2_
                0x08013168       0x18 bn_hw_palettes.o
                0x08013168                bn::hw::palettes::intensity(bn::color const*, int, int, bn::color*)
 .text._ZN2bn2hw8palettes9hue_shiftEPKNS_5colorEiiPS2_
                0x08013180      0x14c bn_hw_palettes.o
                0x08013180                bn::hw::palettes::hue_shift(bn::color const*, int, int, bn::color*)
 .text._ZN2bn2hw8palettes6rotateEPKNS_5colorEiiPS2_
                0x080132cc       0x2c bn_hw_palettes.o
                0x080132cc                bn::hw::palettes::rotate(bn::color const*, int, int, bn::color*)
 .text._ZN2bn2hw4show5errorERKNS_11system_fontERKNS_11string_viewES7_S7_iS7_S7_
                0x080132f8      0x3bc bn_hw_show.o
                0x080132f8                bn::hw::show::error(bn::system_font const&, bn::string_view const&, bn::string_view const&, bn::string_view const&, int, bn::string_view const&, bn::string_view const&)
 .text._ZN2bn2hw4sram4initEv
                0x080136b4       0x18 bn_hw_sram.o
                0x080136b4                bn::hw::sram::init()
 .text._ZN2bn11system_fontC2Ev
                0x080136cc       0x18 bn_hw_system_font.o
                0x080136cc                bn::system_font::system_font()
                0x080136cc                bn::system_font::system_font()
 .text._ZNK2bn11system_font8tte_fontEv
                0x080136e4        0x4 bn_hw_system_font.o
                0x080136e4                bn::system_font::tte_font() const
 .text._ZN2bn2hw4text5parseEiRNS_5arrayIcLi32EEE
                0x080136e8       0xbc bn_hw_text.o
                0x080136e8                bn::hw::text::parse(int, bn::array<char, 32>&)
 .text._ZN2bn2hw4text5parseEjRNS_5arrayIcLi32EEE
                0x080137a4       0xa0 bn_hw_text.o
                0x080137a4                bn::hw::text::parse(unsigned int, bn::array<char, 32>&)
 .text._ZN2bn2hw4text5parseEPKvRNS_5arrayIcLi32EEE
                0x08013844       0x30 bn_hw_text.o
                0x08013844                bn::hw::text::parse(void const*, bn::array<char, 32>&)
 .text._Z7VgmStopv
                0x08013874       0xc0 vgm.o
                0x08013874                VgmStop()
 .text._Z7VgmPlayPKhb
                0x08013934       0x28 vgm.o
                0x08013934                VgmPlay(unsigned char const*, bool)
 .text._Z13VgmIntrVblankv
                0x0801395c       0x80 vgm.o
                0x0801395c                VgmIntrVblank()
 .text._Z9VgmActivev
                0x080139dc       0x10 vgm.o
                0x080139dc                VgmActive()
 .text._Z16VgmGetOffsetPlayv
                0x080139ec        0xc vgm.o
                0x080139ec                VgmGetOffsetPlay()
 .text._Z16VgmSetOffsetPlayj
                0x080139f8       0x10 vgm.o
                0x080139f8                VgmSetOffsetPlay(unsigned int)
 .text._Z8VgmPausev
                0x08013a08       0x20 vgm.o
                0x08013a08                VgmPause()
 .text._Z9VgmResumev
                0x08013a28       0x18 vgm.o
                0x08013a28                VgmResume()
 .text.clr_grayscale
                0x08013a40       0x78 tonc_color.o
                0x08013a40                clr_grayscale
 .text.sbmp16_rect
                0x08013ab8       0x6c tonc_sbmp16.o
                0x08013ab8                sbmp16_rect
 .text.bmp16_drawg_b1cts
                0x08013b24       0xc0 bmp16_drawg_b1cs.o
                0x08013b24                bmp16_drawg_b1cts
 .text.bmp16_erase
                0x08013be4       0x24 tte_init_bmp.o
                0x08013be4                bmp16_erase
 .text.tte_init_bmp
                0x08013c08       0x60 tte_init_bmp.o
                0x08013c08                tte_init_bmp
 .text.dummy_drawg
                0x08013c68        0x4 tte_main.o
                0x08013c68                dummy_drawg
 .text.dummy_erase
                0x08013c6c        0x4 tte_main.o
                0x08013c6c                dummy_erase
 .text.tte_init_base
                0x08013c70       0x68 tte_main.o
                0x08013c70                tte_init_base
 .text.utf8_decode_char
                0x08013cd8       0xb4 tte_main.o
                0x08013cd8                utf8_decode_char
 .text.tte_write
                0x08013d8c       0xe8 tte_main.o
                0x08013d8c                tte_write
 .text.tte_get_text_size
                0x08013e74       0xa4 tte_main.o
                0x08013e74                tte_get_text_size
 .text.tte_set_margins
                0x08013f18       0x18 tte_main.o
                0x08013f18                tte_set_margins
 .text.IRQ_Init
                0x08013f30       0x48 interrupts_gba.o
                0x08013f30                IRQ_Init
 .text.IRQ_SetHandler
                0x08013f78        0xc interrupts_gba.o
                0x08013f78                IRQ_SetHandler
 .text.IRQ_Enable
                0x08013f84       0x60 interrupts_gba.o
                0x08013f84                IRQ_Enable
 .text.IRQ_Disable
                0x08013fe4       0x5c interrupts_gba.o
                0x08013fe4                IRQ_Disable
 .text.channel3_refresh_registers
                0x08014040       0xd0 gbt_player.o
 .text.gbt_refresh_pattern_ptr
                0x08014110       0x84 gbt_player.o
 .text.gbt_ch1234_nop
                0x08014194        0x4 gbt_player.o
 .text.gbt_ch1234_speed
                0x08014198       0x10 gbt_player.o
 .text.gbt_ch1234_jump_pattern
                0x080141a8       0x14 gbt_player.o
 .text.gbt_ch1234_jump_position
                0x080141bc       0x1c gbt_player.o
 .text.gbt_ch1234_event
                0x080141d8       0x24 gbt_player.o
 .text.gbt_ch1_pan
                0x080141fc       0x10 gbt_player.o
 .text.gbt_ch1_cut_note
                0x0801420c       0x10 gbt_player.o
 .text.gbt_ch1_arpeggio
                0x0801421c       0x34 gbt_player.o
 .text.gbt_ch1_vibrato
                0x08014250       0x20 gbt_player.o
 .text.gbt_ch1_volslide
                0x08014270       0x10 gbt_player.o
 .text.gbt_ch2_pan
                0x08014280       0x10 gbt_player.o
 .text.gbt_ch2_cut_note
                0x08014290       0x10 gbt_player.o
 .text.gbt_ch2_arpeggio
                0x080142a0       0x34 gbt_player.o
 .text.gbt_ch2_vibrato
                0x080142d4       0x20 gbt_player.o
 .text.gbt_ch2_volslide
                0x080142f4       0x10 gbt_player.o
 .text.gbt_ch3_pan
                0x08014304       0x10 gbt_player.o
 .text.gbt_ch3_cut_note
                0x08014314       0x10 gbt_player.o
 .text.gbt_ch3_arpeggio
                0x08014324       0x34 gbt_player.o
 .text.gbt_ch3_vibrato
                0x08014358       0x20 gbt_player.o
 .text.gbt_ch4_pan
                0x08014378       0x14 gbt_player.o
 .text.gbt_ch4_cut_note
                0x0801438c       0x10 gbt_player.o
 .text.gbt_ch4_volslide
                0x0801439c       0x10 gbt_player.o
 .text.gbt_update_refresh_panning
                0x080143ac       0x50 gbt_player.o
 .text.gbt_run_startup_commands.part.0
                0x080143fc       0xd0 gbt_player.o
 .text.gbt_update_effects_internal
                0x080144cc      0x2d4 gbt_player.o
 .text.gbt_play
                0x080147a0      0x1dc gbt_player.o
                0x080147a0                gbt_play
 .text.gbt_volume
                0x0801497c       0x68 gbt_player.o
                0x0801497c                gbt_volume
 .text.gbt_is_playing
                0x080149e4        0xc gbt_player.o
                0x080149e4                gbt_is_playing
 .text.gbt_pause
                0x080149f0       0x48 gbt_player.o
                0x080149f0                gbt_pause
 .text.gbt_loop
                0x08014a38        0xc gbt_player.o
                0x08014a38                gbt_loop
 .text.gbt_stop
                0x08014a44       0x24 gbt_player.o
                0x08014a44                gbt_stop
 .text.gbt_update
                0x08014a68      0x64c gbt_player.o
                0x08014a68                gbt_update
 .text.gbt_get_position_unsafe
                0x080150b4       0x24 gbt_player.o
                0x080150b4                gbt_get_position_unsafe
 .text.gbt_set_position
                0x080150d8       0xe0 gbt_player.o
                0x080150d8                gbt_set_position
 .text.VBlankIntrWait
                0x080151b8        0x4 tonc_bios.o
                0x080151b8                VBlankIntrWait
 .text.memset16
                0x080151bc       0x3c tonc_memset.o
                0x080151bc                memset16
 .text          0x080151f8      0x26c posprintf.o
                0x080151fc                posprintf
 .text          0x08015464      0x314 mm_effect.o
                0x08015464                mmResetEffects
                0x08015490                mmEffect
                0x080154a6                mmEffectEx
                0x080155a6                mmEffectActive
                0x080155da                mmEffectVolume
                0x080155f6                mmEffectPanning
                0x0801560a                mmEffectRate
                0x0801561e                mmEffectCancel
                0x08015658                mmEffectRelease
                0x0801567e                mmEffectScaleRate
                0x08015692                mmSetEffectsVolume
                0x080156a0                mmEffectCancelAll
                0x080156e0                mmUpdateEffects
 .text          0x08015778       0x14 mm_main.o
                0x08015778                mpp_call_r7
                0x0801577a                mpp_call_r1
                0x0801577c                mpp_call_r2
                0x0801577e                mpp_call_r3
                0x08015780                mmSetEventHandler
 .text          0x0801578c     0x1570 mm_mas.o
                0x08015800                mmStart
                0x08015820                mmJingle
                0x08015826                mmPlayModule
                0x080158f0                mmPause
                0x0801590c                mmResume
                0x0801591c                mmActive
                0x08015922                mmActiveSub
                0x08015928                mmSetModuleVolume
                0x08015938                mmSetJingleVolume
                0x08015974                mmGetPositionTick
                0x0801597a                mmGetPositionRow
                0x08015980                mmGetPosition
                0x08015986                mmPosition
                0x080159a0                mmSetModuleTempo
                0x080159d2                mmSetModulePitch
                0x08015a14                mmStop
                0x08015ada                mppUpdateSub
                0x08015c36                mpp_Process_VolumeCommand
                0x08015e6e                mpp_Process_Effect
                0x080165bc                ST3_FREQTABLE
                0x080169dc                IT_PitchTable
 .text          0x08016cfc      0x12c mm_main_gba.o
                0x08016cfc                mmInit
                0x08016d50                mmSetVBlankHandler
                0x08016d56                mmFrame
 .text          0x08016e28      0x1e0 mm_mixer_gba.o
                0x08016e28                mmMixerSetSource
                0x08016e3c                mmMixerSetRead
                0x08016e4a                mmMixerSetFreq
                0x08016e5a                mmMixerMulFreq
                0x08016e6e                mmMixerStopChannel
                0x08016e80                mmMixerChannelActive
                0x08016e92                mmMixerSetVolume
                0x08016ea0                mmMixerSetPan
                0x08016eae                mmMixerInit
 .text          0x08017008       0x3c G:/devkitPro/devkitARM/bin/../lib/gcc/arm-none-eabi/14.1.0/thumb\libgcc.a(_call_via_rX.o)
                0x08017008                _call_via_r0
                0x0801700c                _call_via_r1
                0x08017010                _call_via_r2
                0x08017014                _call_via_r3
                0x08017018                _call_via_r4
                0x0801701c                _call_via_r5
                0x08017020                _call_via_r6
                0x08017024                _call_via_r7
                0x08017028                _call_via_r8
                0x0801702c                _call_via_r9
                0x08017030                _call_via_sl
                0x08017034                _call_via_fp
                0x08017038                _call_via_ip
                0x0801703c                _call_via_sp
                0x08017040                _call_via_lr
 *fill*         0x08017044        0x4 ff
 .text.__stub   0x08017048      0x118 linker stubs
 *(.gnu.linkonce.t.*)
 *(.text.*personality*)
 *(.gnu.warning)
 *(.glue_7t)
 .glue_7t       0x080171b8        0x0 linker stubs
 *(.glue_7)
 .glue_7        0x080171b8        0x0 linker stubs
 *(.vfp11_veneer)
 .vfp11_veneer  0x080171b8        0x0 linker stubs
                0x080171b8                        . = ALIGN (0x4)
                0x080171b8                        __text_end = .

.v4_bx          0x080171b8        0x0
 .v4_bx         0x080171b8        0x0 linker stubs

.iplt           0x080171b8        0x0
 .iplt          0x080171b8        0x0 G:/devkitPro/devkitARM/bin/../lib/gcc/arm-none-eabi/14.1.0/../../../../arm-none-eabi/lib/thumb/gba_crt0.o

.fini           0x080171b8        0xc
 *(.fini)
 .fini          0x080171b8        0x4 G:/devkitPro/devkitARM/bin/../lib/gcc/arm-none-eabi/14.1.0/thumb/crti.o
                0x080171b8                _fini
 .fini          0x080171bc        0x8 G:/devkitPro/devkitARM/bin/../lib/gcc/arm-none-eabi/14.1.0/thumb/crtn.o
                0x080171c4                        . = ALIGN (0x4)

.rodata         0x080171c4    0x11a70
 *(.rodata)
 .rodata        0x080171c4     0x20c0 bg01_bn_gfx.o
                0x080171c4                bg01_bn_gfxTiles
                0x08018a64                bg01_bn_gfxMap
                0x08019264                bg01_bn_gfxPal
 .rodata        0x08019284     0x20c0 bg02_bn_gfx.o
                0x08019284                bg02_bn_gfxTiles
                0x0801ab24                bg02_bn_gfxMap
                0x0801b324                bg02_bn_gfxPal
 .rodata        0x0801b344     0x1ba0 common_variable_8x16_font_bn_gfx.o
                0x0801b344                common_variable_8x16_font_bn_gfxTiles
                0x0801cec4                common_variable_8x16_font_bn_gfxPal
 .rodata        0x0801cee4      0x880 kuro_bn_gfx.o
                0x0801cee4                kuro_bn_gfxTiles
                0x0801cf44                kuro_bn_gfxMap
                0x0801d744                kuro_bn_gfxPal
 .rodata        0x0801d764     0x3900 sp01_bn_gfx.o
                0x0801d764                sp01_bn_gfxTiles
                0x08020844                sp01_bn_gfxMap
                0x08021044                sp01_bn_gfxPal
 .rodata        0x08021064     0x3900 sp02_bn_gfx.o
                0x08021064                sp02_bn_gfxTiles
                0x08024144                sp02_bn_gfxMap
                0x08024944                sp02_bn_gfxPal
 .rodata        0x08024964       0x50 main.o
 .rodata        0x080249b4        0x6 bn_sprite_text_generator.o
 *fill*         0x080249ba        0x2 ff
 .rodata        0x080249bc       0x10 bn_sprite_tiles_manager.o
 .rodata        0x080249cc       0x90 gbt_player.o
 .rodata        0x08024a5c      0xef8 verdana9.o
                0x08024a5c                verdana9Font
                0x08024a74                verdana9Glyphs
                0x08025874                verdana9Widths
 *all.rodata*(*)
 *(.roda)
 *(.rodata.*)
 .rodata._bn_audio_soundbank_bin
                0x08025954        0xc _bn_audio_soundbank.bin.o
                0x08025954                _bn_audio_soundbank_bin
                0x08025960                _bn_audio_soundbank_bin_end
 .rodata.str1.4
                0x08025960     0x2001 main.o
                                 0x40 (size before relaxing)
 *fill*         0x08027961        0x3 ff
 .rodata._ZN2bn16regular_bg_items4bg02E
                0x08027964       0x28 main.o
                0x08027964                bn::regular_bg_items::bg02
 .rodata._ZN2bn16regular_bg_items4bg01E
                0x0802798c       0x28 main.o
                0x0802798c                bn::regular_bg_items::bg01
 .rodata._ZN2bn16regular_bg_items4sp02E
                0x080279b4       0x28 main.o
                0x080279b4                bn::regular_bg_items::sp02
 .rodata._ZN2bn16regular_bg_items4sp01E
                0x080279dc       0x28 main.o
                0x080279dc                bn::regular_bg_items::sp01
 .rodata._ZN6commonL25variable_8x16_sprite_fontE
                0x08027a04       0x34 main.o
 .rodata._ZN6commonL45variable_8x16_sprite_font_utf8_characters_mapE
                0x08027a38      0x100 main.o
 .rodata._ZN6commonL42variable_8x16_sprite_font_character_widthsE
                0x08027b38       0x6f main.o
 *fill*         0x08027ba7        0x1 ff
 .rodata._ZN2bn16regular_bg_items4kuroE
                0x08027ba8       0x28 main.o
                0x08027ba8                bn::regular_bg_items::kuro
 .rodata._ZN2bn13audio_manager10play_musicENS_10music_itemENS_7fixed_tILi12EEEb.str1.4
                0x08027bd0       0x49 bn_audio_manager.o
 .rodata._ZN2bn9dmg_music8positionEv.str1.4
                0x08027bd0       0x31 bn_audio_manager.o
 .rodata._ZN2bn9dmg_music12set_positionEii.str1.4
                0x08027bd0       0x76 bn_audio_manager.o
 .rodata._ZN2bn13audio_manager16execute_commandsEv.str1.4
                0x08027bd0       0x5e bn_audio_manager.o
 .rodata._ZN2bn13audio_manager16execute_commandsEv
                0x08027bd0       0x64 bn_audio_manager.o
 .rodata._ZN2bn18best_fit_allocatorD2Ev.str1.4
                0x08027c34       0x4b bn_best_fit_allocator.o
 .rodata._ZN2bn18best_fit_allocator5allocEi.str1.4
                0x08027c34       0x24 bn_best_fit_allocator.o
 .rodata._ZN2bn18best_fit_allocator5resetEPvi.str1.4
                0x08027c34       0x81 bn_best_fit_allocator.o
 .rodata._ZN2bn17bg_blocks_manager10log_statusEv.str1.4
                0x08027c34      0x125 bn_bg_blocks_manager.o
 .rodata._ZNK2bn19regular_bg_map_item10decompressENS_4spanItEE.str1.4
                0x08027c34      0x107 bn_bg_blocks_manager.o
 .rodata._ZN2bn17bg_blocks_manager12_GLOBAL__N_116_find_tiles_implEPKtNS_16compression_typeEib.str1.4
                0x08027c34       0x5a bn_bg_blocks_manager.o
 .rodata._ZN2bn17bg_blocks_manager17regular_map_tilesEi.str1.4
                0x08027c34       0x32 bn_bg_blocks_manager.o
 .rodata._ZN2bn17bg_blocks_manager14palette_offsetEi.str1.4
                0x08027c34        0xb bn_bg_blocks_manager.o
 .rodata._ZN2bn17bg_blocks_manager21set_regular_map_tilesEiONS_20regular_bg_tiles_ptrE.str1.4
                0x08027c34       0x82 bn_bg_blocks_manager.o
 .rodata._ZN2bn17bg_blocks_manager23set_regular_map_paletteEiONS_14bg_palette_ptrE.str1.4
                0x08027c34       0x8e bn_bg_blocks_manager.o
 .rodata._ZN2bn17bg_blocks_manager12_GLOBAL__N_112_create_itemEiibONS1_11create_dataE.str1.4
                0x08027c34       0x31 bn_bg_blocks_manager.o
 .rodata._ZN2bn17bg_blocks_manager20create_regular_tilesERKNS_21regular_bg_tiles_itemEb.str1.4
                0x08027c34       0x90 bn_bg_blocks_manager.o
 .rodata._ZN2bn17affine_bg_map_ptr4findERKNS_18affine_bg_map_itemERKNS_19affine_bg_tiles_ptrERKNS_14bg_palette_ptrEi.str1.4
                0x08027c34       0x98 bn_bg_blocks_manager.o
 .rodata._ZN2bn17bg_blocks_manager17create_affine_mapERKNS_18affine_bg_map_itemEPKhONS_19affine_bg_tiles_ptrEONS_14bg_palette_ptrEb.str1.4
                0x08027c34      0x12b bn_bg_blocks_manager.o
 .rodata._ZN2bn17bg_blocks_manager22create_new_regular_mapERKNS_19regular_bg_map_itemEPKtONS_20regular_bg_tiles_ptrEONS_14bg_palette_ptrEb.str1.4
                0x08027c34       0x8a bn_bg_blocks_manager.o
 .rodata._ZN2bn18regular_bg_map_ptr10create_newERKNS_19regular_bg_map_itemENS_20regular_bg_tiles_ptrENS_14bg_palette_ptrEi.str1.4
                0x08027c34       0x19 bn_bg_blocks_manager.o
 .rodata._ZN2bn17bg_blocks_manager33set_regular_map_tiles_and_paletteEiONS_20regular_bg_tiles_ptrEONS_14bg_palette_ptrE.str1.4
                0x08027c34       0x99 bn_bg_blocks_manager.o
 .rodata._ZN2bn17bg_blocks_manager12_GLOBAL__N_122_find_regular_map_implERKNS_19regular_bg_map_itemEPKtRKNS_20regular_bg_tiles_ptrERKNS_14bg_palette_ptrE.str1.4
                0x08027c34       0x17 bn_bg_blocks_manager.o
 .rodata._ZN2bn17bg_blocks_manager18create_regular_mapERKNS_19regular_bg_map_itemEPKtONS_20regular_bg_tiles_ptrEONS_14bg_palette_ptrEb.str1.4
                0x08027c34       0x32 bn_bg_blocks_manager.o
 .rodata.str1.4
                0x08027c34       0x21 bn_bg_blocks_manager.o
 .rodata._ZN2bn17bg_blocks_manager12_GLOBAL__N_1L19_status_log_messageE
                0x08027c34        0x8 bn_bg_blocks_manager.o
 .rodata._ZN2bn11bgs_manager10dimensionsEPv.str1.4
                0x08027c3c       0x4d bn_bgs_manager.o
 .rodata._ZN2bn11bgs_manager15rebuild_handlesEv.part.0.str1.4
                0x08027c3c       0x67 bn_bgs_manager.o
 .rodata._ZN2bn18regular_bg_builder11release_mapEv.str1.4
                0x08027c3c       0x32 bn_bgs_manager.o
 .rodata._ZN2bn11bgs_manager37fill_hblank_effect_regular_attributesEPvPKNS_21regular_bg_attributesEPt.str1.4
                0x08027c3c       0x4c bn_bgs_manager.o
 .rodata._ZN2bn11bgs_manager15set_regular_mapEPvRKNS_18regular_bg_map_ptrE.str1.4
                0x08027c3c       0x3e bn_bgs_manager.o
 .rodata._ZN2bn11bgs_manager36fill_hblank_effect_affine_attributesEPvPKNS_20affine_bg_attributesEPt.str1.4
                0x08027c3c       0x25 bn_bgs_manager.o
 .rodata._ZN2bn11bgs_manager12_GLOBAL__N_112_insert_itemERNS1_9item_typeE.str1.4
                0x08027c3c       0x6e bn_bgs_manager.o
 .rodata._ZN2bn11bgs_manager15create_optionalEONS_18regular_bg_builderE.str1.4
                0x08027c3c       0x34 bn_bgs_manager.o
 .rodata._ZN2bn11bgs_manager6createEONS_17affine_bg_builderE.str1.4
                0x08027c3c       0x1b bn_bgs_manager.o
 .rodata._ZN2bn4core4initERKNS_8optionalINS_5colorEEERKNS_11string_viewE.str1.4
                0x08027c3c        0xb bn_core.o
 .rodata._ZN2bn8blending27set_transparency_attributesERKNS_32blending_transparency_attributesE.str1.4
                0x08027c3c       0x76 bn_display_manager.o
 .rodata._ZN2bn8blending22set_transparency_alphaENS_7fixed_tILi12EEE.str1.4
                0x08027c3c       0x69 bn_display_manager.o
 .rodata._ZN2bn8blending27set_transparency_top_weightENS_7fixed_tILi12EEE.str1.4
                0x08027c3c       0x7e bn_display_manager.o
 .rodata._ZN2bn8blending30set_transparency_bottom_weightENS_7fixed_tILi12EEE.str1.4
                0x08027c3c       0x89 bn_display_manager.o
 .rodata._ZN2bn11rect_window14set_boundariesERKNS_13fixed_point_tILi12EEES4_.str1.4
                0x08027c3c       0xa4 bn_display_manager.o
 .rodata._ZN2bn22hblank_effects_manager12_GLOBAL__N_110_is_uint32ENS0_12handler_typeE.str1.4
                0x08027c3c       0x42 bn_hblank_effects_manager.o
 .rodata._ZN2bn22hblank_effects_manager12_GLOBAL__N_19item_type12check_updateEv.str1.4
                0x08027c3c      0x155 bn_hblank_effects_manager.o
 .rodata._ZN2bn22hblank_effects_manager12_GLOBAL__N_19item_type12check_updateEv
                0x08027c3c       0xa4 bn_hblank_effects_manager.o
 .rodata._ZN2bn22hblank_effects_manager6updateEv.str1.4
                0x08027ce0       0x25 bn_hblank_effects_manager.o
 .rodata._ZN2bn22hblank_effects_manager4initEv.str1.4
                0x08027ce0       0x27 bn_hblank_effects_manager.o
 .rodata._ZN2bn14keypad_manager6updateEv.str1.4
                0x08027ce0       0x5b bn_keypad_manager.o
 .rodata._ZN2bn14keypad_manager4initERKNS_11string_viewE.str1.4
                0x08027ce0       0x54 bn_keypad_manager.o
 .rodata._ZNK2bn13palettes_bank10log_statusEv.str1.4
                0x08027ce0       0x60 bn_palettes_manager.o
 .rodata._ZNK2bn13palettes_bank6colorsEi.str1.4
                0x08027ce0       0x33 bn_palettes_manager.o
 .rodata._ZN2bn13palettes_bank11colors_hashERKNS_4spanIKNS_5colorEEE.str1.4
                0x08027ce0       0x53 bn_palettes_manager.o
 .rodata._ZN2bn13palettes_bank12create_bpp_8ERKNS_4spanIKNS_5colorEEENS_16compression_typeEb.str1.4
                0x08027ce0       0xc7 bn_palettes_manager.o
 .rodata._ZN2bn13palettes_bank16set_rotate_countEii.str1.4
                0x08027ce0       0x4c bn_palettes_manager.o
 .rodata._ZNK2bn19sprite_palette_item10decompressENS_4spanINS_5colorEEE.str1.4
                0x08027ce0      0x107 bn_palettes_manager.o
 .rodata._ZNK2bn15bg_palette_item10decompressENS_4spanINS_5colorEEE.str1.4
                0x08027ce0       0x19 bn_palettes_manager.o
 .rodata._ZN2bn13palettes_bank12create_bpp_4ERKNS_4spanIKNS_5colorEEEtb.str1.4
                0x08027ce0       0xa3 bn_palettes_manager.o
 .rodata._ZN2bn14iunordered_mapItsNS_15identity_hasherENS_8equal_toItEEE5eraseERKNS4_14const_iteratorE.isra.0.str1.4
                0x08027ce0       0x21 bn_palettes_manager.o
 .rodata._ZN2bn26sprite_affine_mats_manager22reserve_sprite_handlesEi.str1.4
                0x08027ce0       0x72 bn_sprite_affine_mats_manager.o
 .rodata._ZN2bn26sprite_affine_mats_manager12_GLOBAL__N_115_new_item_indexEv.str1.4
                0x08027ce0       0x69 bn_sprite_affine_mats_manager.o
 .rodata._ZN2bn26sprite_affine_mats_manager15decrease_usagesEi.part.0.str1.4
                0x08027ce0       0x1b bn_sprite_affine_mats_manager.o
 .rodata._ZN2bn26sprite_affine_mats_manager14dettach_spriteEiRNS_24intrusive_list_node_typeE.str1.4
                0x08027ce0       0x22 bn_sprite_affine_mats_manager.o
 .rodata._ZN2bn21sprite_text_generator5_initEv.str1.4
                0x08027ce0       0x44 bn_sprite_text_generator.o
 .rodata._ZN2bn14utf8_characterC2ERKc.str1.4
                0x08027ce0       0x3c bn_sprite_text_generator.o
 .rodata._ZN2bn12_GLOBAL__N_115_graphics_indexEcRKNS_23utf8_characters_map_refEPKcRi.part.0.str1.4
                0x08027ce0       0x44 bn_sprite_text_generator.o
 .rodata._ZN2bn21sprite_text_generatorC2ERKNS_11sprite_fontERKNS_19sprite_palette_itemE.str1.4
                0x08027ce0       0x79 bn_sprite_text_generator.o
 .rodata._ZNK2bn21sprite_text_generator5widthERKNS_11string_viewE.str1.4
                0x08027ce0       0x2c bn_sprite_text_generator.o
 .rodata._ZN2bn12_GLOBAL__N_120_build_sprite_assertILNS_11sprite_sizeE2EEEPNS_4tileERKNS_21sprite_text_generatorERKNS_18sprite_palette_ptrERKNS_13fixed_point_tILi12EEERNS_7ivectorINS_10sprite_ptrEEE.str1.4
                0x08027ce0       0xaa bn_sprite_text_generator.o
 .rodata._ZN2bn12_GLOBAL__N_19_generateILb0EEEbRKNS_21sprite_text_generatorERKNS_13fixed_point_tILi12EEERKNS_11string_viewERKNS_23utf8_characters_map_refEiibRNS_7ivectorINS_10sprite_ptrEEE.isra.0.str1.4
                0x08027ce0      0x137 bn_sprite_text_generator.o
 .rodata._ZN2bn20sprite_tiles_manager10log_statusEv.str1.4
                0x08027ce0       0x94 bn_sprite_tiles_manager.o
 .rodata._ZN2bn20sprite_tiles_manager12_GLOBAL__N_110_hw_commitEPKNS_4tileENS_16compression_typeEii.str1.4
                0x08027ce0       0x47 bn_sprite_tiles_manager.o
 .rodata._ZN2bn20sprite_tiles_manager12_GLOBAL__N_122_insert_to_commit_itemEiRNS1_9item_typeE.part.0.str1.4
                0x08027ce0       0x27 bn_sprite_tiles_manager.o
 .rodata._ZN2bn20sprite_tiles_manager12_GLOBAL__N_117_insert_free_itemEiPt.str1.4
                0x08027ce0       0x45 bn_sprite_tiles_manager.o
 .rodata._ZN2bn20sprite_tiles_manager12_GLOBAL__N_116_erase_free_itemEi.str1.4
                0x08027ce0       0x40 bn_sprite_tiles_manager.o
 .rodata._ZN2bn20sprite_tiles_manager12_GLOBAL__N_110_find_implEPKNS_4tileENS_16compression_typeEi.str1.4
                0x08027ce0       0xd2 bn_sprite_tiles_manager.o
 .rodata._ZN2bn16sprite_tiles_ptr4findERKNS_17sprite_tiles_itemE.str1.4
                0x08027ce0       0xa3 bn_sprite_tiles_manager.o
 .rodata._ZN2bn16sprite_tiles_ptr4findERKNS_17sprite_tiles_itemEi.str1.4
                0x08027ce0       0x51 bn_sprite_tiles_manager.o
 .rodata._ZN2bn14iunordered_mapIPKNS_4tileEiNS_4hashIS3_EENS_8equal_toIS3_EEE5eraseERKNS8_14const_iteratorE.isra.0.str1.4
                0x08027ce0       0x56 bn_sprite_tiles_manager.o
 .rodata._ZN2bn20sprite_tiles_manager12_GLOBAL__N_112_create_itemEiPKNS_4tileENS_16compression_typeEib.str1.4
                0x08027ce0       0x35 bn_sprite_tiles_manager.o
 .rodata._ZN2bn20sprite_tiles_manager17allocate_optionalEiNS_8bpp_modeE.str1.4
                0x08027ce0       0x62 bn_sprite_tiles_manager.o
 .rodata._ZN2bn20sprite_tiles_manager8allocateEiNS_8bpp_modeE.str1.4
                0x08027ce0       0x5c bn_sprite_tiles_manager.o
 .rodata._ZN2bn20sprite_tiles_manager6createERKNS_4spanIKNS_4tileEEENS_16compression_typeE.str1.4
                0x08027ce0       0x44 bn_sprite_tiles_manager.o
 .rodata.str1.4
                0x08027ce0       0x25 bn_sprite_tiles_manager.o
 .rodata._ZN2bn20sprite_tiles_manager12_GLOBAL__N_1L19_status_log_messageE
                0x08027ce0        0x8 bn_sprite_tiles_manager.o
 .rodata._ZN2bn14sprite_builder20set_blending_enabledEb.str1.4
                0x08027ce8       0x6a bn_sprites_manager.o
 .rodata._ZN2bn15sprites_manager20set_blending_enabledEPvb.str1.4
                0x08027ce8       0x17 bn_sprites_manager.o
 .rodata._ZNK2bn17sprite_shape_size11tiles_countENS_8bpp_modeE.isra.0.str1.4
                0x08027ce8       0x40 bn_sprites_manager.o
 .rodata._ZN2bn15sprites_manager12_GLOBAL__N_118_remove_affine_matERNS_20sprites_manager_itemE.str1.4
                0x08027ce8       0x32 bn_sprites_manager.o
 .rodata._ZN2bn20sprites_manager_item13_builder_initERKNS_14sprite_builderE.str1.4
                0x08027ce8       0x53 bn_sprites_manager.o
 .rodata._ZN2bn14sprite_builder11set_z_orderEi.str1.4
                0x08027ce8       0x66 bn_sprites_manager.o
 .rodata._ZN2bn14sprite_builderC2ERKNS_17sprite_shape_sizeENS_16sprite_tiles_ptrENS_18sprite_palette_ptrE.str1.4
                0x08027ce8       0x6e bn_sprites_manager.o
 .rodata._ZN2bn14sprite_builder15set_bg_priorityEi.str1.4
                0x08027ce8       0x66 bn_sprites_manager.o
 .rodata._ZN2bn15sprites_manager6updateEv.str1.4
                0x08027ce8       0x2f bn_sprites_manager.o
 .rodata._ZN2bn15sprites_manager35fill_hblank_effect_third_attributesENS_17sprite_shape_sizeEPKNS_23sprite_third_attributesEPt.str1.4
                0x08027ce8       0x93 bn_sprites_manager.o
 .rodata._ZN2bn14sorted_sprites6sorter6insertERNS_20sprites_manager_itemE.str1.4
                0x08027ce8       0x41 bn_sprites_manager.o
 .rodata._ZN2bn15sprites_manager6createERKNS_13fixed_point_tILi12EEERKNS_17sprite_shape_sizeEONS_16sprite_tiles_ptrEONS_18sprite_palette_ptrE.str1.4
                0x08027ce8       0x27 bn_sprites_manager.o
 .rodata._ZN2bn15sprites_manager15create_optionalEONS_14sprite_builderE.str1.4
                0x08027ce8       0x19 bn_sprites_manager.o
 .rodata._ZN2bn15sprites_manager9put_aboveEPv.str1.4
                0x08027ce8       0x2a bn_sprites_manager.o
 .rodata._ZN2bn15sprites_manager15set_bg_priorityEPvi.str1.4
                0x08027ce8       0x31 bn_sprites_manager.o
 .rodata._ZN2bn2hw7sprites12_GLOBAL__N_1L10_obj_sizesE
                0x08027ce8       0x18 bn_sprites_manager.o
 .rodata._ZN3_bn6assert9show_argsIJA19_ciA4_ciEEEvPKcS5_S5_iDpRKT_.str1.4
                0x08027d00       0x96 bn_sstream.o
 .rodata._ZN2bn13ostringstream6appendEPKv.str1.4
                0x08027d00        0x8 bn_sstream.o
 .rodata._ZN2bn13ostringstream16_append_fractionEji.str1.4
                0x08027d00       0x1f bn_sstream.o
 .rodata._ZN2bn18igeneric_pool_baseD2Ev.str1.4
                0x08027d00       0x42 bn_translation_unit.o
 .rodata._ZN2bn18igeneric_pool_base9_allocateEv.str1.4
                0x08027d00       0x19 bn_translation_unit.o
 .rodata._ZN2bn2hw5audio14play_dmg_musicEPKvNS_14dmg_music_typeEib.str1.4
                0x08027d00       0x5b bn_hw_audio.o
 .rodata._ZN2bn2hw5audio22set_dmg_music_positionEii.str1.4
                0x08027d00       0x2a bn_hw_audio.o
 .rodata._ZN2bn2hw5audio20set_dmg_music_volumeEii.str1.4
                0x08027d00       0x46 bn_hw_audio.o
 .rodata._ZN2bn2hw5audio6commitEv.str1.4
                0x08027d00       0x1c bn_hw_audio.o
 .rodata._ZN2bn2hw5audio12_GLOBAL__N_119_add_sound_to_queueEit.str1.4
                0x08027d00       0x21 bn_hw_audio.o
 .rodata._ZN2bn2hw5audio12_GLOBAL__N_123_erase_sound_from_queueEt.str1.4
                0x08027d00       0x59 bn_hw_audio.o
 .rodata._ZN2bn2hw5audio12_GLOBAL__N_119_check_sounds_queueEv.part.0.str1.4
                0x08027d00       0x12 bn_hw_audio.o
 .rodata.__cxa_pure_virtual.str1.4
                0x08027d00       0x4f bn_hw_common.bn_noflto.o
 .rodata.__aeabi_idiv0.str1.4
                0x08027d00       0x38 bn_hw_common.bn_noflto.o
 .rodata._ZN2bn2hw8game_pak12_GLOBAL__N_1L8rom_dataE
                0x08027d00        0xc bn_hw_game_pak.bn_ewram.o
 .rodata._ZN2bn2hw4link4sendEi.str1.4
                0x08027d0c       0x2b bn_hw_link.o
 .rodata._ZN2bn2hw8palettes12_GLOBAL__N_1L13hue_shift_lutE
                0x08027d0c      0x4a4 bn_hw_palettes.o
 .rodata._ZN2bn2hw8palettes12_GLOBAL__N_1L13intensity_lutE
                0x080281b0      0x420 bn_hw_palettes.o
 .rodata._ZN2bn2hw8palettes12_GLOBAL__N_1L12contrast_lutE
                0x080285d0      0x420 bn_hw_palettes.o
 .rodata._ZN2bn2hw4show5errorERKNS_11system_fontERKNS_11string_viewES7_S7_iS7_S7_.str1.4
                0x080289f0       0xec bn_hw_show.o
 .rodata._ZN2bn2hw4sram12_GLOBAL__N_1L9save_typeE
                0x080289f0        0xa bn_hw_sram.o
 .rodata._ZN2bn2hw4text5parseEiRNS_5arrayIcLi32EEE.str1.4
                0x080289fa        0x7 bn_hw_text.o
 .rodata._ZN2bn2hw4text5parseEPKvRNS_5arrayIcLi32EEE.str1.4
                0x080289fa        0x5 bn_hw_text.o
 *fill*         0x080289fa        0x2 ff
 .rodata.m3_surface
                0x080289fc       0x14 tonc_sbmp16.o
                0x080289fc                m3_surface
 .rodata.srf.0  0x08028a10       0x14 tte_main.o
 .rodata.gbt_refresh_pattern_ptr.str1.4
                0x08028a24        0x9 gbt_player.o
 .rodata.gbt_ch4_jump_table
                0x08028a24       0x40 gbt_player.o
 .rodata.gbt_ch3_jump_table
                0x08028a64       0x40 gbt_player.o
 .rodata.gbt_ch2_jump_table
                0x08028aa4       0x40 gbt_player.o
 .rodata.gbt_ch1_jump_table
                0x08028ae4       0x40 gbt_player.o
 .rodata.vibrato_sine
                0x08028b24       0x80 gbt_player.o
 .rodata.gbt_noise
                0x08028ba4       0x10 gbt_player.o
 .rodata.gbt_default_wave_7
                0x08028bb4       0x10 gbt_player.o
 .rodata.gbt_default_wave_6
                0x08028bc4       0x10 gbt_player.o
 .rodata.gbt_default_wave_5
                0x08028bd4       0x10 gbt_player.o
 .rodata.gbt_default_wave_4
                0x08028be4       0x10 gbt_player.o
 .rodata.gbt_default_wave_3
                0x08028bf4       0x10 gbt_player.o
 .rodata.gbt_default_wave_2
                0x08028c04       0x10 gbt_player.o
 .rodata.gbt_default_wave_1
                0x08028c14       0x10 gbt_player.o
 .rodata.gbt_default_wave_0
                0x08028c24       0x10 gbt_player.o
 *(.gnu.linkonce.r*)
                0x08028c34                        . = ALIGN (0x4)

.ARM.extab
 *(.ARM.extab* .gnu.linkonce.armextab.*)
                0x08028c34                        __exidx_start = .

.ARM.exidx
 *(.ARM.exidx* .gnu.linkonce.armexidx.*)
                0x08028c34                        __exidx_end = .

.ctors          0x08028c34        0x0
 *crtbegin.o(.ctors)
 *(EXCLUDE_FILE(*crtend.o) .ctors)
 *(SORT_BY_NAME(.ctors.*))
 *(.ctors)
                0x08028c34                        . = ALIGN (0x4)

.dtors          0x08028c34        0x0
 *crtbegin.o(.dtors)
 *(EXCLUDE_FILE(*crtend.o) .dtors)
 *(SORT_BY_NAME(.dtors.*))
 *(.dtors)
                0x08028c34                        . = ALIGN (0x4)

.eh_frame       0x08028c34        0x4
 *(.eh_frame)
 .eh_frame      0x08028c34        0x0 G:/devkitPro/devkitARM/bin/../lib/gcc/arm-none-eabi/14.1.0/thumb/crtbegin.o
 .eh_frame      0x08028c34        0x4 G:/devkitPro/devkitARM/bin/../lib/gcc/arm-none-eabi/14.1.0/thumb/crtend.o
                0x08028c38                        . = ALIGN (0x4)

.gcc_except_table
                0x08028c38        0x0
 *(.gcc_except_table)
                0x08028c38                        . = ALIGN (0x4)
                0x08028c38                        __iwram_lma = .

.iwram          0x03000000     0x23c8 load address 0x08028c38
                0x03000000                        __iwram_start__ = ABSOLUTE (.)
 *(.iwram .iwram*)
 .iwram         0x03000000      0x290 bn_sprites_manager.bn_iwram.o
                0x03000000                bn::sprites_manager::_check_items_on_screen(bn::intrusive_list<bn::sorted_sprites::layer>&)
                0x03000104                bn::sprites_manager::_rebuild_handles_impl(int, void*, bn::intrusive_list<bn::sorted_sprites::layer>&)
                0x0300019c                bn::sprites_manager::_update_cameras_impl(bn::intrusive_list<bn::sorted_sprites::layer>&)
 .iwram         0x03000290       0xc4 bn_hw_palettes.bn_iwram.o
                0x03000290                bn::hw::palettes::brightness(bn::color const*, int, int, bn::color*)
                0x030002f8                bn::hw::palettes::_lut_effect(bn::color const*, unsigned char const*, int, bn::color*)
 .iwram         0x03000354       0xa8 bn_hw_sprite_tiles.bn_iwram.o
                0x03000354                bn::hw::sprite_tiles::_plot_hideous_tiles(int, unsigned int const*, int, unsigned int*)
 .iwram         0x030003fc       0x6c bn_hw_bg_blocks.o
                0x030003fc                bn_hw_bg_blocks_commit_half_words
                0x03000414                bn_hw_bg_blocks_commit_words
                0x0300042c                bn_hw_bg_blocks_commit_blocks
 .iwram         0x03000468       0xd0 bn_hw_hblank_effects.o
                0x03000468                bn::hw::hblank_effects::_intr()
                0x03000534                bn::hw::hblank_effects::data
 .iwram         0x03000538       0x30 bn_hw_palettes_asm.o
                0x03000538                bn_hw_palettes_different_words
 .iwram.clr_blend_fast
                0x03000568       0x70 clr_blend_fast.o
                0x03000568                clr_blend_fast
 .iwram         0x030005d8       0x70 clr_fade_fast.o
                0x030005d8                clr_fade_fast
 .iwram.memset32
                0x03000648       0x4c tonc_memset.o
                0x03000648                memset32
 .iwram         0x03000694      0x134 irq_handler.o
                0x03000694                IRQ_GlobalInterruptHandler
 .iwram.__aeabi_lmul
                0x030007c8       0x14 lmul.o
                0x030007c8                __aeabi_lmul
 .iwram.__aeabi_memcpy
                0x030007dc       0xc8 memcpy.o
                0x030007dc                __aeabi_memcpy
                0x03000814                __aeabi_memcpy8
                0x03000814                __aeabi_memcpy4
                0x03000880                __agbabi_memcpy2
 .iwram.__agbabi_memcpy1
                0x030008a4       0x14 memcpy.o
                0x030008a4                __agbabi_memcpy1
 .iwram.memcpy  0x030008b8       0x10 memcpy.o
                0x030008b8                memcpy
 .iwram.__aeabi_memmove
                0x030008c8        0xc memmove.o
                0x030008c8                __aeabi_memmove
 .iwram.memmove
                0x030008d4       0x10 memmove.o
                0x030008d4                memmove
 .iwram.__aeabi_memset
                0x030008e4       0x9c memset.o
                0x030008e4                __aeabi_memset
                0x03000908                __aeabi_memset8
                0x03000908                __aeabi_memset4
                0x03000914                __agbabi_wordset4
                0x03000918                __agbabi_lwordset4
 .iwram.__agbabi_memset1
                0x03000980       0x10 memset.o
                0x03000980                __agbabi_memset1
 .iwram.memset  0x03000990       0x1c memset.o
                0x03000990                memset
 .iwram.__agbabi_rmemcpy
                0x030009ac       0xcc rmemcpy.o
                0x030009ac                __agbabi_rmemcpy
 .iwram.__agbabi_rmemcpy1
                0x03000a78       0x14 rmemcpy.o
                0x03000a78                __agbabi_rmemcpy1
 .iwram         0x03000a8c       0x3c sdiv32.o
                0x03000a8c                __aeabi_idivmod
                0x03000a8c                __aeabi_idiv
 .iwram         0x03000ac8      0x1e0 udiv32.o
                0x03000ac8                __aeabi_uidiv
                0x03000ac8                __aeabi_uidivmod
                0x03000ad0                udiv32pastzero
                0x03000b24                div32Iteration
 .iwram         0x03000ca8       0x98 huffman.o
                0x03000ca8                swi_HuffUnCompReadNormal
 .iwram         0x03000d40      0x1ac lz77.o
                0x03000d40                swi_LZ77UnCompWrite8bit
                0x03000d40                swi_LZ77UnCompWrite16bit
 .iwram         0x03000eec       0xec running_length.o
                0x03000eec                swi_RLUnCompReadNormalWrite8bit
                0x03000f4c                swi_RLUnCompReadNormalWrite16bit
 .iwram         0x03000fd8      0x554 mm_mas.o
                0x03000fd8                mppProcessTick
                0x030010bc                mpp_Channel_NewNote
                0x0300119c                mpp_Update_ACHN_notest
 .iwram         0x0300152c      0x648 mm_mas_arm.o
                0x0300152c                mmAllocChannel
                0x030015a0                mmReadPattern
                0x0300168c                mmUpdateChannel_T0
                0x030018cc                mmUpdateChannel_TN
                0x03001a6c                mmGetPeriod
                0x03001ab0                note_table_oct
                0x03001ace                note_table_mod
 .iwram         0x03001b74        0x8 mm_main_gba.o
                0x03001b74                mpp_call_r7i
                0x03001b76                mpp_call_r2i
                0x03001b78                mpp_call_r1i
 .iwram         0x03001b7c      0x838 mm_mixer_gba.o
                0x03001b80                mmVBlank
                0x03001c04                mmMixerMix
 *fill*         0x030023b4        0x4 ff
 .iwram.__stub  0x030023b8        0xc linker stubs
 *iwram.*(.text* .data*)
                0x030023c4                        . = ALIGN (0x4)
                0x030023c8                        __iwram_end__ = ABSOLUTE (.)
                0x0802b000                        __data_lma = (__iwram_lma + SIZEOF (.iwram))

.bss            0x030023c8      0x86c
                0x030023c8                        __bss_start = ABSOLUTE (.)
                0x030023c8                        __bss_start__ = ABSOLUTE (.)
 *(.dynbss)
 *(.gnu.linkonce.b*)
 *(.bss*)
 .bss.completed.1
                0x030023c8        0x1 G:/devkitPro/devkitARM/bin/../lib/gcc/arm-none-eabi/14.1.0/thumb/crtbegin.o
 *fill*         0x030023c9        0x3 
 .bss.object.0  0x030023cc       0x18 G:/devkitPro/devkitARM/bin/../lib/gcc/arm-none-eabi/14.1.0/thumb/crtbegin.o
 .bss._ZN2bn22hblank_effects_manager12_GLOBAL__N_113internal_dataE
                0x030023e4       0xb0 bn_hblank_effects_manager.o
 .bss._ZN2bn2hw5audio12_GLOBAL__N_120maxmod_mixing_bufferE
                0x03002494      0x420 bn_hw_audio.o
 .bss.fake_heap_end
                0x030028b4        0x4 bn_hw_cstdlib.o
                0x030028b4                fake_heap_end
 .bss.IRQ_VectorTable
                0x030028b8       0x38 interrupts_gba.o
                0x030028b8                IRQ_VectorTable
 .bss           0x030028f0       0x2d mm_effect.o
                0x03002914                mm_sfx_bitmask
                0x03002918                mm_sfx_clearmask
 *fill*         0x0300291d        0x3 
 .bss           0x03002920        0x8 mm_main.o
                0x03002920                mmCallback
                0x03002924                mm_ch_mask
 .bss           0x03002928      0x148 mm_mas.o
                0x03002928                mmLayerMain
                0x03002960                mmLayerSub
                0x03002998                mpp_vars
                0x030029a8                mpp_layerp
                0x030029ac                mpp_channels
                0x030029bc                mpp_nchannels
                0x030029bd                mpp_clayer
                0x030029c0                mm_achannels
                0x030029c4                mm_pchannels
                0x030029c8                mm_num_mch
                0x030029cc                mm_num_ach
                0x030029d0                mm_schannels
 .bss           0x03002a70        0x8 mm_main_gba.o
                0x03002a70                mm_vblank_function
                0x03002a74                mp_solution
 .bss           0x03002a78      0x1bc mm_mixer_gba.o
                0x03002a78                mp_writepos
                0x03002a80                mm_mixchannels
                0x03002a88                mm_mixlen
                0x03002a9c                mm_bpmdv
                0x03002aa0                mp_mix_seg
 *(COMMON)
                0x03002c34                        . = ALIGN (0x4)
                0x03002c34                        __bss_end__ = ABSOLUTE (.)

.data           0x03002c34        0x4 load address 0x0802b000
                0x03002c34                        __data_start__ = ABSOLUTE (.)
 *(.data*)
 .data.__dso_handle
                0x03002c34        0x4 G:/devkitPro/devkitARM/bin/../lib/gcc/arm-none-eabi/14.1.0/thumb/crtbegin.o
                0x03002c34                __dso_handle
 *(.gnu.linkonce.d*)
                0x03002c38                        . = ALIGN (0x4)
                0x0802b004                        __preinit_lma = (__data_lma + SIZEOF (.data))

.igot.plt       0x03002c38        0x0 load address 0x0802b004
 .igot.plt      0x03002c38        0x0 G:/devkitPro/devkitARM/bin/../lib/gcc/arm-none-eabi/14.1.0/../../../../arm-none-eabi/lib/thumb/gba_crt0.o

.preinit_array  0x03002c38        0x0 load address 0x0802b004
                0x03002c38                        __preinit_array_start = ABSOLUTE (.)
 *(.preinit_array)
                0x03002c38                        __preinit_array_end = ABSOLUTE (.)
                0x0802b004                        __init_lma = (__preinit_lma + SIZEOF (.preinit_array))

.init_array     0x03002c38       0x40 load address 0x0802b004
                0x03002c38                        __init_array_start = ABSOLUTE (.)
 *(SORT_BY_NAME(.init_array.*))
 *(.init_array)
 .init_array    0x03002c38        0x4 G:/devkitPro/devkitARM/bin/../lib/gcc/arm-none-eabi/14.1.0/thumb/crtbegin.o
 .init_array    0x03002c3c        0x4 bn_audio_manager.o
 .init_array    0x03002c40        0x4 bn_bg_blocks_manager.o
 .init_array    0x03002c44        0x4 bn_bgs_manager.o
 .init_array    0x03002c48        0x4 bn_cameras_manager.o
 .init_array    0x03002c4c        0x4 bn_core.o
 .init_array    0x03002c50        0x4 bn_display_manager.o
 .init_array    0x03002c54        0x4 bn_hblank_effects_manager.o
 .init_array    0x03002c58        0x4 bn_hdma_manager.o
 .init_array    0x03002c5c        0x4 bn_memory_manager.o
 .init_array    0x03002c60        0x4 bn_palettes_manager.o
 .init_array    0x03002c64        0x4 bn_sprite_affine_mats_manager.o
 .init_array    0x03002c68        0x4 bn_sprite_tiles_manager.o
 .init_array    0x03002c6c        0x4 bn_sprites_manager.o
 .init_array    0x03002c70        0x4 bn_hw_audio.o
 .init_array    0x03002c74        0x4 bn_hw_link.o
                0x03002c78                        __init_array_end = ABSOLUTE (.)
                0x0802b044                        __fini_lma = (__init_lma + SIZEOF (.init_array))

.fini_array     0x03002c78        0x4 load address 0x0802b044
                0x03002c78                        __fini_array_start = ABSOLUTE (.)
 *(SORT_BY_NAME(.fini_array.*))
 *(.fini_array)
 .fini_array    0x03002c78        0x4 G:/devkitPro/devkitARM/bin/../lib/gcc/arm-none-eabi/14.1.0/thumb/crtbegin.o
                0x03002c7c                        __fini_array_end = ABSOLUTE (.)
                0x0802b048                        __jcr_lma = (__fini_lma + SIZEOF (.fini_array))

.jcr
 *(.jcr)
                0x03002c7c                        __data_end__ = ABSOLUTE (.)
                0x0802b048                        __iwram_overlay_lma = (__jcr_lma + SIZEOF (.jcr))
                0x03002c7c                        __iwram_overlay_start = .

.iwram0         0x03002c7c        0x0 load address 0x0802b048
 *(.iwram0)
                0x03002c7c                        . = ALIGN (0x4)
                0x0802b048                        PROVIDE (__load_start_iwram0 = LOADADDR (.iwram0))
                0x0802b048                        PROVIDE (__load_stop_iwram0 = (LOADADDR (.iwram0) + SIZEOF (.iwram0)))

.iwram1         0x03002c7c        0x0
 *(.iwram1)
                0x03002c7c                        . = ALIGN (0x4)
                [!provide]                        PROVIDE (__load_start_iwram1 = LOADADDR (.iwram1))
                [!provide]                        PROVIDE (__load_stop_iwram1 = (LOADADDR (.iwram1) + SIZEOF (.iwram1)))

.iwram2         0x03002c7c        0x0
 *(.iwram2)
                0x03002c7c                        . = ALIGN (0x4)
                [!provide]                        PROVIDE (__load_start_iwram2 = LOADADDR (.iwram2))
                [!provide]                        PROVIDE (__load_stop_iwram2 = (LOADADDR (.iwram2) + SIZEOF (.iwram2)))

.iwram3         0x03002c7c        0x0
 *(.iwram3)
                0x03002c7c                        . = ALIGN (0x4)
                [!provide]                        PROVIDE (__load_start_iwram3 = LOADADDR (.iwram3))
                [!provide]                        PROVIDE (__load_stop_iwram3 = (LOADADDR (.iwram3) + SIZEOF (.iwram3)))

.iwram4         0x03002c7c        0x0
 *(.iwram4)
                0x03002c7c                        . = ALIGN (0x4)
                [!provide]                        PROVIDE (__load_start_iwram4 = LOADADDR (.iwram4))
                [!provide]                        PROVIDE (__load_stop_iwram4 = (LOADADDR (.iwram4) + SIZEOF (.iwram4)))

.iwram5         0x03002c7c        0x0
 *(.iwram5)
                0x03002c7c                        . = ALIGN (0x4)
                [!provide]                        PROVIDE (__load_start_iwram5 = LOADADDR (.iwram5))
                [!provide]                        PROVIDE (__load_stop_iwram5 = (LOADADDR (.iwram5) + SIZEOF (.iwram5)))

.iwram6         0x03002c7c        0x0
 *(.iwram6)
                0x03002c7c                        . = ALIGN (0x4)
                [!provide]                        PROVIDE (__load_start_iwram6 = LOADADDR (.iwram6))
                [!provide]                        PROVIDE (__load_stop_iwram6 = (LOADADDR (.iwram6) + SIZEOF (.iwram6)))

.iwram7         0x03002c7c        0x0
 *(.iwram7)
                0x03002c7c                        . = ALIGN (0x4)
                [!provide]                        PROVIDE (__load_start_iwram7 = LOADADDR (.iwram7))
                [!provide]                        PROVIDE (__load_stop_iwram7 = (LOADADDR (.iwram7) + SIZEOF (.iwram7)))

.iwram8         0x03002c7c        0x0
 *(.iwram8)
                0x03002c7c                        . = ALIGN (0x4)
                [!provide]                        PROVIDE (__load_start_iwram8 = LOADADDR (.iwram8))
                [!provide]                        PROVIDE (__load_stop_iwram8 = (LOADADDR (.iwram8) + SIZEOF (.iwram8)))

.iwram9         0x03002c7c        0x0
 *(.iwram9)
                0x03002c7c                        . = ALIGN (0x4)
                [!provide]                        PROVIDE (__load_start_iwram9 = LOADADDR (.iwram9))
                [!provide]                        PROVIDE (__load_stop_iwram9 = (LOADADDR (.iwram9) + SIZEOF (.iwram9)))
                0x03002c7c                        __iwram_overlay_end = .
                0x0802b048                        __ewram_lma = (__iwram_overlay_lma + (__iwram_overlay_end - __iwram_overlay_start))
                0x03002c7c                        __iheap_start = .
                0x02000000                        __ewram_start = ORIGIN (ewram)

.ewram          0x02000000       0xf4 load address 0x0802b048
 *(.ewram*)
 .ewram         0x02000000        0x2 bn_gpio_manager.o
 *fill*         0x02000002        0x2 ff
 .ewram         0x02000004       0x9c bn_hw_game_pak.bn_ewram.o
                0x02000004                bn::hw::game_pak::_slow_game_pak()
 .ewram         0x020000a0        0xc vgm.o
                0x020000a0                Vgm
 .ewram         0x020000ac       0x48 tte_main.o
                0x020000ac                __tte_main_context
                0x020000f4                        . = ALIGN (0x4)
                0x020000f4                        __ewram_end = ABSOLUTE (.)
                0x0802b13c                        __pad_lma = (__ewram_lma + SIZEOF (.ewram))

.sbss           0x020000f4     0x8204
                0x020000f4                        __sbss_start__ = ABSOLUTE (.)
 *(.sbss*)
 .sbss          0x020000f4      0x174 bn_audio_manager.o
 .sbss          0x02000268      0x1e4 bn_bg_blocks_manager.o
 .sbss          0x0200044c      0x2ac bn_bgs_manager.o
 .sbss          0x020006f8       0x38 bn_cameras_manager.o
 .sbss          0x02000730       0x48 bn_core.o
 .sbss          0x02000778       0xa4 bn_display_manager.o
 .sbss          0x0200081c     0x1a44 bn_hblank_effects_manager.o
 .sbss          0x02002260       0x38 bn_hdma_manager.o
 .sbss          0x02002298       0x18 bn_keypad_manager.o
 .sbss          0x020022b0       0x10 bn_memory_manager.o
 .sbss          0x020022c0      0xd48 bn_palettes_manager.o
 .sbss          0x02003008      0x8c8 bn_sprite_affine_mats_manager.o
 .sbss          0x020038d0     0x1674 bn_sprite_tiles_manager.o
 .sbss          0x02004f44     0x2650 bn_sprites_manager.o
 .sbss          0x02007594      0xb9c bn_hw_audio.o
 .sbss          0x02008130      0x130 bn_hw_link.o
 .sbss          0x02008260       0x98 gbt_player.o
                0x020082f8                        . = ALIGN (0x4)
                0x020082f8                        __sbss_end__ = ABSOLUTE (.)
                0x020082f8                        __end__ = ABSOLUTE (.)
                0x020082f8                        __eheap_start = ABSOLUTE (.)

.pad            0x020082f8        0x8 load address 0x0802b13c
                0x020082f8        0x4 LONG 0x52416b64
                0x020082fc        0x4 LONG 0x4d
                0x02008300                        . = ALIGN (0x4)
                0x0802b144                        __rom_end__ = (__pad_lma + SIZEOF (.pad))

.rel.dyn        0x02008300        0x0 load address 0x0802b144
 .rel.iplt      0x02008300        0x0 G:/devkitPro/devkitARM/bin/../lib/gcc/arm-none-eabi/14.1.0/../../../../arm-none-eabi/lib/thumb/gba_crt0.o

.stab
 *(.stab)

.stabstr
 *(.stabstr)

.stab.excl
 *(.stab.excl)

.stab.exclstr
 *(.stab.exclstr)

.stab.index
 *(.stab.index)

.stab.indexstr
 *(.stab.indexstr)

.comment        0x00000000       0x23
 *(.comment)
 .comment       0x00000000       0x23 G:/devkitPro/devkitARM/bin/../lib/gcc/arm-none-eabi/14.1.0/thumb/crtbegin.o
                                 0x24 (size before relaxing)
 .comment       0x00000023       0x24 common_info.o
 .comment       0x00000023       0x24 common_stats.o
 .comment       0x00000023       0x24 main.o
 .comment       0x00000023       0x24 bn_affine_bg_animate_actions.o
 .comment       0x00000023       0x24 bn_audio_manager.o
 .comment       0x00000023       0x24 bn_best_fit_allocator.o
 .comment       0x00000023       0x24 bn_bg_blocks_manager.o
 .comment       0x00000023       0x24 bn_bgs_manager.o
 .comment       0x00000023       0x24 bn_cameras_manager.o
 .comment       0x00000023       0x24 bn_core.o
 .comment       0x00000023       0x24 bn_display_manager.o
 .comment       0x00000023       0x24 bn_gpio_manager.o
 .comment       0x00000023       0x24 bn_hblank_effects_manager.o
 .comment       0x00000023       0x24 bn_hdma_manager.o
 .comment       0x00000023       0x24 bn_keypad_manager.o
 .comment       0x00000023       0x24 bn_link_manager.o
 .comment       0x00000023       0x24 bn_memory_manager.o
 .comment       0x00000023       0x24 bn_palettes_manager.o
 .comment       0x00000023       0x24 bn_sprite_affine_mats_manager.o
 .comment       0x00000023       0x24 bn_sprite_text_generator.o
 .comment       0x00000023       0x24 bn_sprite_tiles_manager.o
 .comment       0x00000023       0x24 bn_sprites_manager.bn_iwram.o
 .comment       0x00000023       0x24 bn_sprites_manager.o
 .comment       0x00000023       0x24 bn_sstream.o
 .comment       0x00000023       0x24 bn_translation_unit.o
 .comment       0x00000023       0x24 bn_hw_audio.o
 .comment       0x00000023       0x24 bn_hw_common.bn_noflto.o
 .comment       0x00000023       0x24 bn_hw_cstdlib.o
 .comment       0x00000023       0x24 bn_hw_game_pak.bn_ewram.o
 .comment       0x00000023       0x24 bn_hw_link.o
 .comment       0x00000023       0x24 bn_hw_memory.o
 .comment       0x00000023       0x24 bn_hw_palettes.bn_iwram.o
 .comment       0x00000023       0x24 bn_hw_palettes.o
 .comment       0x00000023       0x24 bn_hw_show.o
 .comment       0x00000023       0x24 bn_hw_sprite_tiles.bn_iwram.o
 .comment       0x00000023       0x24 bn_hw_sram.o
 .comment       0x00000023       0x24 bn_hw_system_font.o
 .comment       0x00000023       0x24 bn_hw_text.o
 .comment       0x00000023       0x24 vgm.o
 .comment       0x00000023       0x24 tonc_color.o
 .comment       0x00000023       0x24 tonc_sbmp16.o
